                                      1 ;--------------------------------------------------------
                                      2 ; File Created by SDCC : free open source ANSI-C Compiler
                                      3 ; Version 4.2.0 #13081 (MINGW64)
                                      4 ;--------------------------------------------------------
                                      5 	.module DS18B20
                                      6 	.optsdcc -mmcs51 --model-small
                                      7 	
                                      8 ;--------------------------------------------------------
                                      9 ; Public variables in this module
                                     10 ;--------------------------------------------------------
                                     11 	.globl _delayTenMicroseconds
                                     12 	.globl _delayOneMillisecond
                                     13 	.globl _CP_RL2
                                     14 	.globl _C_T2
                                     15 	.globl _TR2
                                     16 	.globl _EXEN2
                                     17 	.globl _TCLK
                                     18 	.globl _RCLK
                                     19 	.globl _EXF2
                                     20 	.globl _TF2
                                     21 	.globl _T2
                                     22 	.globl _T2EX
                                     23 	.globl _RI
                                     24 	.globl _TI
                                     25 	.globl _RB8
                                     26 	.globl _TB8
                                     27 	.globl _REN
                                     28 	.globl _SM2
                                     29 	.globl _SM1
                                     30 	.globl _SM0
                                     31 	.globl _RXD
                                     32 	.globl _TXD
                                     33 	.globl _INT0
                                     34 	.globl _INT1
                                     35 	.globl _T0
                                     36 	.globl _T1
                                     37 	.globl _WR
                                     38 	.globl _RD
                                     39 	.globl _PX0
                                     40 	.globl _PT0
                                     41 	.globl _PX1
                                     42 	.globl _PT1
                                     43 	.globl _PS
                                     44 	.globl _PT2
                                     45 	.globl _EX0
                                     46 	.globl _ET0
                                     47 	.globl _EX1
                                     48 	.globl _ET1
                                     49 	.globl _ES
                                     50 	.globl _ET2
                                     51 	.globl _EA
                                     52 	.globl _IT0
                                     53 	.globl _IE0
                                     54 	.globl _IT1
                                     55 	.globl _IE1
                                     56 	.globl _TR0
                                     57 	.globl _TF0
                                     58 	.globl _TR1
                                     59 	.globl _TF1
                                     60 	.globl _P
                                     61 	.globl _OV
                                     62 	.globl _RS0
                                     63 	.globl _RS1
                                     64 	.globl _F0
                                     65 	.globl _AC
                                     66 	.globl _CY
                                     67 	.globl _P37
                                     68 	.globl _P36
                                     69 	.globl _P35
                                     70 	.globl _P34
                                     71 	.globl _P33
                                     72 	.globl _P32
                                     73 	.globl _P31
                                     74 	.globl _P30
                                     75 	.globl _P27
                                     76 	.globl _P26
                                     77 	.globl _P25
                                     78 	.globl _P24
                                     79 	.globl _P23
                                     80 	.globl _P22
                                     81 	.globl _P21
                                     82 	.globl _P20
                                     83 	.globl _P17
                                     84 	.globl _P16
                                     85 	.globl _P15
                                     86 	.globl _P14
                                     87 	.globl _P13
                                     88 	.globl _P12
                                     89 	.globl _P11
                                     90 	.globl _P10
                                     91 	.globl _P07
                                     92 	.globl _P06
                                     93 	.globl _P05
                                     94 	.globl _P04
                                     95 	.globl _P03
                                     96 	.globl _P02
                                     97 	.globl _P01
                                     98 	.globl _P00
                                     99 	.globl _TH2
                                    100 	.globl _TL2
                                    101 	.globl _RCAP2H
                                    102 	.globl _RCAP2L
                                    103 	.globl _T2CON
                                    104 	.globl _SBUF
                                    105 	.globl _SCON
                                    106 	.globl _IP
                                    107 	.globl _IE
                                    108 	.globl _TH1
                                    109 	.globl _TH0
                                    110 	.globl _TL1
                                    111 	.globl _TL0
                                    112 	.globl _TMOD
                                    113 	.globl _TCON
                                    114 	.globl _PCON
                                    115 	.globl _DPH
                                    116 	.globl _DPL
                                    117 	.globl _SP
                                    118 	.globl _B
                                    119 	.globl _ACC
                                    120 	.globl _PSW
                                    121 	.globl _P3
                                    122 	.globl _P2
                                    123 	.globl _P1
                                    124 	.globl _P0
                                    125 	.globl _getTemperatureOfDS18B20_PARM_2
                                    126 	.globl _initializeDS18B20
                                    127 	.globl _writeByteToDS18B20
                                    128 	.globl _readByteFromDS18B20
                                    129 	.globl _changeTemperatureCommandOfDS18B20
                                    130 	.globl _readTemperatureCommandOfDS18B20
                                    131 	.globl _readTemperatureOfDS18B20
                                    132 	.globl _getTemperatureOfDS18B20
                                    133 ;--------------------------------------------------------
                                    134 ; special function registers
                                    135 ;--------------------------------------------------------
                                    136 	.area RSEG    (ABS,DATA)
      000000                        137 	.org 0x0000
                           000080   138 _P0	=	0x0080
                           000090   139 _P1	=	0x0090
                           0000A0   140 _P2	=	0x00a0
                           0000B0   141 _P3	=	0x00b0
                           0000D0   142 _PSW	=	0x00d0
                           0000E0   143 _ACC	=	0x00e0
                           0000F0   144 _B	=	0x00f0
                           000081   145 _SP	=	0x0081
                           000082   146 _DPL	=	0x0082
                           000083   147 _DPH	=	0x0083
                           000087   148 _PCON	=	0x0087
                           000088   149 _TCON	=	0x0088
                           000089   150 _TMOD	=	0x0089
                           00008A   151 _TL0	=	0x008a
                           00008B   152 _TL1	=	0x008b
                           00008C   153 _TH0	=	0x008c
                           00008D   154 _TH1	=	0x008d
                           0000A8   155 _IE	=	0x00a8
                           0000B8   156 _IP	=	0x00b8
                           000098   157 _SCON	=	0x0098
                           000099   158 _SBUF	=	0x0099
                           0000C8   159 _T2CON	=	0x00c8
                           0000CA   160 _RCAP2L	=	0x00ca
                           0000CB   161 _RCAP2H	=	0x00cb
                           0000CC   162 _TL2	=	0x00cc
                           0000CD   163 _TH2	=	0x00cd
                                    164 ;--------------------------------------------------------
                                    165 ; special function bits
                                    166 ;--------------------------------------------------------
                                    167 	.area RSEG    (ABS,DATA)
      000000                        168 	.org 0x0000
                           000080   169 _P00	=	0x0080
                           000081   170 _P01	=	0x0081
                           000082   171 _P02	=	0x0082
                           000083   172 _P03	=	0x0083
                           000084   173 _P04	=	0x0084
                           000085   174 _P05	=	0x0085
                           000086   175 _P06	=	0x0086
                           000087   176 _P07	=	0x0087
                           000090   177 _P10	=	0x0090
                           000091   178 _P11	=	0x0091
                           000092   179 _P12	=	0x0092
                           000093   180 _P13	=	0x0093
                           000094   181 _P14	=	0x0094
                           000095   182 _P15	=	0x0095
                           000096   183 _P16	=	0x0096
                           000097   184 _P17	=	0x0097
                           0000A0   185 _P20	=	0x00a0
                           0000A1   186 _P21	=	0x00a1
                           0000A2   187 _P22	=	0x00a2
                           0000A3   188 _P23	=	0x00a3
                           0000A4   189 _P24	=	0x00a4
                           0000A5   190 _P25	=	0x00a5
                           0000A6   191 _P26	=	0x00a6
                           0000A7   192 _P27	=	0x00a7
                           0000B0   193 _P30	=	0x00b0
                           0000B1   194 _P31	=	0x00b1
                           0000B2   195 _P32	=	0x00b2
                           0000B3   196 _P33	=	0x00b3
                           0000B4   197 _P34	=	0x00b4
                           0000B5   198 _P35	=	0x00b5
                           0000B6   199 _P36	=	0x00b6
                           0000B7   200 _P37	=	0x00b7
                           0000D7   201 _CY	=	0x00d7
                           0000D6   202 _AC	=	0x00d6
                           0000D5   203 _F0	=	0x00d5
                           0000D4   204 _RS1	=	0x00d4
                           0000D3   205 _RS0	=	0x00d3
                           0000D2   206 _OV	=	0x00d2
                           0000D0   207 _P	=	0x00d0
                           00008F   208 _TF1	=	0x008f
                           00008E   209 _TR1	=	0x008e
                           00008D   210 _TF0	=	0x008d
                           00008C   211 _TR0	=	0x008c
                           00008B   212 _IE1	=	0x008b
                           00008A   213 _IT1	=	0x008a
                           000089   214 _IE0	=	0x0089
                           000088   215 _IT0	=	0x0088
                           0000AF   216 _EA	=	0x00af
                           0000AD   217 _ET2	=	0x00ad
                           0000AC   218 _ES	=	0x00ac
                           0000AB   219 _ET1	=	0x00ab
                           0000AA   220 _EX1	=	0x00aa
                           0000A9   221 _ET0	=	0x00a9
                           0000A8   222 _EX0	=	0x00a8
                           0000BD   223 _PT2	=	0x00bd
                           0000BC   224 _PS	=	0x00bc
                           0000BB   225 _PT1	=	0x00bb
                           0000BA   226 _PX1	=	0x00ba
                           0000B9   227 _PT0	=	0x00b9
                           0000B8   228 _PX0	=	0x00b8
                           0000B7   229 _RD	=	0x00b7
                           0000B6   230 _WR	=	0x00b6
                           0000B5   231 _T1	=	0x00b5
                           0000B4   232 _T0	=	0x00b4
                           0000B3   233 _INT1	=	0x00b3
                           0000B2   234 _INT0	=	0x00b2
                           0000B1   235 _TXD	=	0x00b1
                           0000B0   236 _RXD	=	0x00b0
                           00009F   237 _SM0	=	0x009f
                           00009E   238 _SM1	=	0x009e
                           00009D   239 _SM2	=	0x009d
                           00009C   240 _REN	=	0x009c
                           00009B   241 _TB8	=	0x009b
                           00009A   242 _RB8	=	0x009a
                           000099   243 _TI	=	0x0099
                           000098   244 _RI	=	0x0098
                           000091   245 _T2EX	=	0x0091
                           000090   246 _T2	=	0x0090
                           0000CF   247 _TF2	=	0x00cf
                           0000CE   248 _EXF2	=	0x00ce
                           0000CD   249 _RCLK	=	0x00cd
                           0000CC   250 _TCLK	=	0x00cc
                           0000CB   251 _EXEN2	=	0x00cb
                           0000CA   252 _TR2	=	0x00ca
                           0000C9   253 _C_T2	=	0x00c9
                           0000C8   254 _CP_RL2	=	0x00c8
                                    255 ;--------------------------------------------------------
                                    256 ; overlayable register banks
                                    257 ;--------------------------------------------------------
                                    258 	.area REG_BANK_0	(REL,OVR,DATA)
      000000                        259 	.ds 8
                                    260 ;--------------------------------------------------------
                                    261 ; internal ram data
                                    262 ;--------------------------------------------------------
                                    263 	.area DSEG    (DATA)
      000000                        264 _getTemperatureOfDS18B20_PARM_2:
      000000                        265 	.ds 3
      000003                        266 _getTemperatureOfDS18B20_buf_65536_28:
      000003                        267 	.ds 3
      000006                        268 _getTemperatureOfDS18B20_sloc0_1_0:
      000006                        269 	.ds 3
      000009                        270 _getTemperatureOfDS18B20_sloc1_1_0:
      000009                        271 	.ds 3
      00000C                        272 _getTemperatureOfDS18B20_sloc2_1_0:
      00000C                        273 	.ds 2
      00000E                        274 _getTemperatureOfDS18B20_sloc3_1_0:
      00000E                        275 	.ds 4
      000012                        276 _getTemperatureOfDS18B20_sloc4_1_0:
      000012                        277 	.ds 3
      000015                        278 _getTemperatureOfDS18B20_sloc5_1_0:
      000015                        279 	.ds 4
                                    280 ;--------------------------------------------------------
                                    281 ; overlayable items in internal ram
                                    282 ;--------------------------------------------------------
                                    283 	.area	OSEG    (OVR,DATA)
                                    284 	.area	OSEG    (OVR,DATA)
                                    285 ;--------------------------------------------------------
                                    286 ; indirectly addressable internal ram data
                                    287 ;--------------------------------------------------------
                                    288 	.area ISEG    (DATA)
                                    289 ;--------------------------------------------------------
                                    290 ; absolute internal ram data
                                    291 ;--------------------------------------------------------
                                    292 	.area IABS    (ABS,DATA)
                                    293 	.area IABS    (ABS,DATA)
                                    294 ;--------------------------------------------------------
                                    295 ; bit data
                                    296 ;--------------------------------------------------------
                                    297 	.area BSEG    (BIT)
                                    298 ;--------------------------------------------------------
                                    299 ; paged external ram data
                                    300 ;--------------------------------------------------------
                                    301 	.area PSEG    (PAG,XDATA)
                                    302 ;--------------------------------------------------------
                                    303 ; external ram data
                                    304 ;--------------------------------------------------------
                                    305 	.area XSEG    (XDATA)
                                    306 ;--------------------------------------------------------
                                    307 ; absolute external ram data
                                    308 ;--------------------------------------------------------
                                    309 	.area XABS    (ABS,XDATA)
                                    310 ;--------------------------------------------------------
                                    311 ; external initialized ram data
                                    312 ;--------------------------------------------------------
                                    313 	.area XISEG   (XDATA)
                                    314 	.area HOME    (CODE)
                                    315 	.area GSINIT0 (CODE)
                                    316 	.area GSINIT1 (CODE)
                                    317 	.area GSINIT2 (CODE)
                                    318 	.area GSINIT3 (CODE)
                                    319 	.area GSINIT4 (CODE)
                                    320 	.area GSINIT5 (CODE)
                                    321 	.area GSINIT  (CODE)
                                    322 	.area GSFINAL (CODE)
                                    323 	.area CSEG    (CODE)
                                    324 ;--------------------------------------------------------
                                    325 ; global & static initialisations
                                    326 ;--------------------------------------------------------
                                    327 	.area HOME    (CODE)
                                    328 	.area GSINIT  (CODE)
                                    329 	.area GSFINAL (CODE)
                                    330 	.area GSINIT  (CODE)
                                    331 ;--------------------------------------------------------
                                    332 ; Home
                                    333 ;--------------------------------------------------------
                                    334 	.area HOME    (CODE)
                                    335 	.area HOME    (CODE)
                                    336 ;--------------------------------------------------------
                                    337 ; code
                                    338 ;--------------------------------------------------------
                                    339 	.area CSEG    (CODE)
                                    340 ;------------------------------------------------------------
                                    341 ;Allocation info for local variables in function 'initializeDS18B20'
                                    342 ;------------------------------------------------------------
                                    343 ;i                         Allocated to registers r6 r7 
                                    344 ;------------------------------------------------------------
                                    345 ;	.\src\utils\DS18B20.c:5: unsigned char initializeDS18B20(void) {
                                    346 ;	-----------------------------------------
                                    347 ;	 function initializeDS18B20
                                    348 ;	-----------------------------------------
      000000                        349 _initializeDS18B20:
                           000007   350 	ar7 = 0x07
                           000006   351 	ar6 = 0x06
                           000005   352 	ar5 = 0x05
                           000004   353 	ar4 = 0x04
                           000003   354 	ar3 = 0x03
                           000002   355 	ar2 = 0x02
                           000001   356 	ar1 = 0x01
                           000000   357 	ar0 = 0x00
                                    358 ;	.\src\utils\DS18B20.c:8: DSPORT = 0;	//将总线拉低480us~960us
                                    359 ;	assignBit
      000000 C2 95            [12]  360 	clr	_P15
                                    361 ;	.\src\utils\DS18B20.c:9: delayTenMicroseconds(64);	//延时642us
      000002 90 00 40         [24]  362 	mov	dptr,#0x0040
      000005 12r00r00         [24]  363 	lcall	_delayTenMicroseconds
                                    364 ;	.\src\utils\DS18B20.c:11: DSPORT = 1;	//然后拉高总线，如果DS18B20做出反应会将在15us~60us后总线拉低
                                    365 ;	assignBit
      000008 D2 95            [12]  366 	setb	_P15
                                    367 ;	.\src\utils\DS18B20.c:13: while(DSPORT) {	//等待DS18B20拉低总线
      00000A 7E 00            [12]  368 	mov	r6,#0x00
      00000C 7F 00            [12]  369 	mov	r7,#0x00
      00000E                        370 00103$:
      00000E 30 95 26         [24]  371 	jnb	_P15,00105$
                                    372 ;	.\src\utils\DS18B20.c:14: i ++;
      000011 0E               [12]  373 	inc	r6
      000012 BE 00 01         [24]  374 	cjne	r6,#0x00,00121$
      000015 0F               [12]  375 	inc	r7
      000016                        376 00121$:
                                    377 ;	.\src\utils\DS18B20.c:15: delayOneMillisecond(1);
      000016 90 00 01         [24]  378 	mov	dptr,#0x0001
      000019 C0 07            [24]  379 	push	ar7
      00001B C0 06            [24]  380 	push	ar6
      00001D 12r00r00         [24]  381 	lcall	_delayOneMillisecond
      000020 D0 06            [24]  382 	pop	ar6
      000022 D0 07            [24]  383 	pop	ar7
                                    384 ;	.\src\utils\DS18B20.c:16: if(i > 5) return 0;	//等待>5MS, 则初始化失败
      000024 C3               [12]  385 	clr	c
      000025 74 05            [12]  386 	mov	a,#0x05
      000027 9E               [12]  387 	subb	a,r6
      000028 74 80            [12]  388 	mov	a,#(0x00 ^ 0x80)
      00002A 8F F0            [24]  389 	mov	b,r7
      00002C 63 F0 80         [24]  390 	xrl	b,#0x80
      00002F 95 F0            [12]  391 	subb	a,b
      000031 50 DB            [24]  392 	jnc	00103$
      000033 75 82 00         [24]  393 	mov	dpl,#0x00
      000036 22               [24]  394 	ret
      000037                        395 00105$:
                                    396 ;	.\src\utils\DS18B20.c:19: return 1;	//初始化成功
      000037 75 82 01         [24]  397 	mov	dpl,#0x01
                                    398 ;	.\src\utils\DS18B20.c:20: }
      00003A 22               [24]  399 	ret
                                    400 ;------------------------------------------------------------
                                    401 ;Allocation info for local variables in function 'writeByteToDS18B20'
                                    402 ;------------------------------------------------------------
                                    403 ;dat                       Allocated to registers r7 
                                    404 ;i                         Allocated to registers r3 r4 
                                    405 ;j                         Allocated to registers r5 r6 
                                    406 ;------------------------------------------------------------
                                    407 ;	.\src\utils\DS18B20.c:23: void writeByteToDS18B20(unsigned char dat) {
                                    408 ;	-----------------------------------------
                                    409 ;	 function writeByteToDS18B20
                                    410 ;	-----------------------------------------
      00003B                        411 _writeByteToDS18B20:
      00003B AF 82            [24]  412 	mov	r7,dpl
                                    413 ;	.\src\utils\DS18B20.c:26: for(j = 0;j < 8;j ++) {
      00003D 7D 00            [12]  414 	mov	r5,#0x00
      00003F 7E 00            [12]  415 	mov	r6,#0x00
      000041                        416 00105$:
                                    417 ;	.\src\utils\DS18B20.c:27: DSPORT = 0;	//每写入一位数据之前先把总线拉低1us
                                    418 ;	assignBit
      000041 C2 95            [12]  419 	clr	_P15
                                    420 ;	.\src\utils\DS18B20.c:29: DSPORT = dat & 0x01;	//然后写入一个数据，从最低位开始
      000043 EF               [12]  421 	mov	a,r7
      000044 54 01            [12]  422 	anl	a,#0x01
                                    423 ;	assignBit
      000046 24 FF            [12]  424 	add	a,#0xff
      000048 92 95            [24]  425 	mov	_P15,c
                                    426 ;	.\src\utils\DS18B20.c:32: while(i --);	//延时68us，持续时间最少60us
      00004A 7B 06            [12]  427 	mov	r3,#0x06
      00004C 7C 00            [12]  428 	mov	r4,#0x00
      00004E                        429 00101$:
      00004E 8B 01            [24]  430 	mov	ar1,r3
      000050 8C 02            [24]  431 	mov	ar2,r4
      000052 1B               [12]  432 	dec	r3
      000053 BB FF 01         [24]  433 	cjne	r3,#0xff,00123$
      000056 1C               [12]  434 	dec	r4
      000057                        435 00123$:
      000057 E9               [12]  436 	mov	a,r1
      000058 4A               [12]  437 	orl	a,r2
      000059 70 F3            [24]  438 	jnz	00101$
                                    439 ;	.\src\utils\DS18B20.c:34: DSPORT = 1;	//然后释放总线，至少1us给总线恢复时间才能接着写入第二个数值
                                    440 ;	assignBit
      00005B D2 95            [12]  441 	setb	_P15
                                    442 ;	.\src\utils\DS18B20.c:35: dat >>= 1;
      00005D EF               [12]  443 	mov	a,r7
      00005E C3               [12]  444 	clr	c
      00005F 13               [12]  445 	rrc	a
      000060 FF               [12]  446 	mov	r7,a
                                    447 ;	.\src\utils\DS18B20.c:26: for(j = 0;j < 8;j ++) {
      000061 0D               [12]  448 	inc	r5
      000062 BD 00 01         [24]  449 	cjne	r5,#0x00,00125$
      000065 0E               [12]  450 	inc	r6
      000066                        451 00125$:
      000066 C3               [12]  452 	clr	c
      000067 ED               [12]  453 	mov	a,r5
      000068 94 08            [12]  454 	subb	a,#0x08
      00006A EE               [12]  455 	mov	a,r6
      00006B 94 00            [12]  456 	subb	a,#0x00
      00006D 40 D2            [24]  457 	jc	00105$
                                    458 ;	.\src\utils\DS18B20.c:37: }
      00006F 22               [24]  459 	ret
                                    460 ;------------------------------------------------------------
                                    461 ;Allocation info for local variables in function 'readByteFromDS18B20'
                                    462 ;------------------------------------------------------------
                                    463 ;byte                      Allocated to registers r7 
                                    464 ;bi                        Allocated to registers r4 
                                    465 ;i                         Allocated to registers r3 r4 
                                    466 ;j                         Allocated to registers r5 r6 
                                    467 ;------------------------------------------------------------
                                    468 ;	.\src\utils\DS18B20.c:40: unsigned char readByteFromDS18B20(void) {
                                    469 ;	-----------------------------------------
                                    470 ;	 function readByteFromDS18B20
                                    471 ;	-----------------------------------------
      000070                        472 _readByteFromDS18B20:
                                    473 ;	.\src\utils\DS18B20.c:41: unsigned char byte=0, bi=0;
      000070 7F 00            [12]  474 	mov	r7,#0x00
                                    475 ;	.\src\utils\DS18B20.c:44: for(j = 8;j > 0;j --) {
      000072 7D 08            [12]  476 	mov	r5,#0x08
      000074 7E 00            [12]  477 	mov	r6,#0x00
      000076                        478 00105$:
                                    479 ;	.\src\utils\DS18B20.c:45: DSPORT = 0;	//先将总线拉低1us
                                    480 ;	assignBit
      000076 C2 95            [12]  481 	clr	_P15
                                    482 ;	.\src\utils\DS18B20.c:47: DSPORT = 1;	//然后释放总线
                                    483 ;	assignBit
      000078 D2 95            [12]  484 	setb	_P15
                                    485 ;	.\src\utils\DS18B20.c:50: bi = DSPORT;	//读取数据，从最低位开始读取
      00007A A2 95            [12]  486 	mov	c,_P15
      00007C E4               [12]  487 	clr	a
      00007D 33               [12]  488 	rlc	a
      00007E FC               [12]  489 	mov	r4,a
                                    490 ;	.\src\utils\DS18B20.c:51: byte = (byte >> 1) | (bi << 7);	// 将byte左移一位，然后与上右移7位后的bi，注意移动之后移掉那位补0
      00007F EF               [12]  491 	mov	a,r7
      000080 C3               [12]  492 	clr	c
      000081 13               [12]  493 	rrc	a
      000082 FB               [12]  494 	mov	r3,a
      000083 EC               [12]  495 	mov	a,r4
      000084 03               [12]  496 	rr	a
      000085 54 80            [12]  497 	anl	a,#0x80
      000087 4B               [12]  498 	orl	a,r3
      000088 FF               [12]  499 	mov	r7,a
                                    500 ;	.\src\utils\DS18B20.c:53: while(i --);
      000089 7B 04            [12]  501 	mov	r3,#0x04
      00008B 7C 00            [12]  502 	mov	r4,#0x00
      00008D                        503 00101$:
      00008D 8B 01            [24]  504 	mov	ar1,r3
      00008F 8C 02            [24]  505 	mov	ar2,r4
      000091 1B               [12]  506 	dec	r3
      000092 BB FF 01         [24]  507 	cjne	r3,#0xff,00129$
      000095 1C               [12]  508 	dec	r4
      000096                        509 00129$:
      000096 E9               [12]  510 	mov	a,r1
      000097 4A               [12]  511 	orl	a,r2
      000098 70 F3            [24]  512 	jnz	00101$
                                    513 ;	.\src\utils\DS18B20.c:44: for(j = 8;j > 0;j --) {
      00009A 1D               [12]  514 	dec	r5
      00009B BD FF 01         [24]  515 	cjne	r5,#0xff,00131$
      00009E 1E               [12]  516 	dec	r6
      00009F                        517 00131$:
      00009F ED               [12]  518 	mov	a,r5
      0000A0 4E               [12]  519 	orl	a,r6
      0000A1 70 D3            [24]  520 	jnz	00105$
                                    521 ;	.\src\utils\DS18B20.c:56: return byte;
      0000A3 8F 82            [24]  522 	mov	dpl,r7
                                    523 ;	.\src\utils\DS18B20.c:57: }
      0000A5 22               [24]  524 	ret
                                    525 ;------------------------------------------------------------
                                    526 ;Allocation info for local variables in function 'changeTemperatureCommandOfDS18B20'
                                    527 ;------------------------------------------------------------
                                    528 ;	.\src\utils\DS18B20.c:60: void changeTemperatureCommandOfDS18B20(void) {
                                    529 ;	-----------------------------------------
                                    530 ;	 function changeTemperatureCommandOfDS18B20
                                    531 ;	-----------------------------------------
      0000A6                        532 _changeTemperatureCommandOfDS18B20:
                                    533 ;	.\src\utils\DS18B20.c:61: initializeDS18B20();
      0000A6 12r00r00         [24]  534 	lcall	_initializeDS18B20
                                    535 ;	.\src\utils\DS18B20.c:62: delayOneMillisecond(1);
      0000A9 90 00 01         [24]  536 	mov	dptr,#0x0001
      0000AC 12r00r00         [24]  537 	lcall	_delayOneMillisecond
                                    538 ;	.\src\utils\DS18B20.c:63: writeByteToDS18B20(0xcc);	//跳过ROM操作命令		 
      0000AF 75 82 CC         [24]  539 	mov	dpl,#0xcc
      0000B2 12r00r3B         [24]  540 	lcall	_writeByteToDS18B20
                                    541 ;	.\src\utils\DS18B20.c:64: writeByteToDS18B20(0x44);	//温度转换命令
      0000B5 75 82 44         [24]  542 	mov	dpl,#0x44
                                    543 ;	.\src\utils\DS18B20.c:65: }
      0000B8 02r00r3B         [24]  544 	ljmp	_writeByteToDS18B20
                                    545 ;------------------------------------------------------------
                                    546 ;Allocation info for local variables in function 'readTemperatureCommandOfDS18B20'
                                    547 ;------------------------------------------------------------
                                    548 ;	.\src\utils\DS18B20.c:68: void readTemperatureCommandOfDS18B20(void)
                                    549 ;	-----------------------------------------
                                    550 ;	 function readTemperatureCommandOfDS18B20
                                    551 ;	-----------------------------------------
      0000BB                        552 _readTemperatureCommandOfDS18B20:
                                    553 ;	.\src\utils\DS18B20.c:70: initializeDS18B20();
      0000BB 12r00r00         [24]  554 	lcall	_initializeDS18B20
                                    555 ;	.\src\utils\DS18B20.c:71: delayOneMillisecond(1);
      0000BE 90 00 01         [24]  556 	mov	dptr,#0x0001
      0000C1 12r00r00         [24]  557 	lcall	_delayOneMillisecond
                                    558 ;	.\src\utils\DS18B20.c:72: writeByteToDS18B20(0xCC);	//跳过ROM操作命令
      0000C4 75 82 CC         [24]  559 	mov	dpl,#0xcc
      0000C7 12r00r3B         [24]  560 	lcall	_writeByteToDS18B20
                                    561 ;	.\src\utils\DS18B20.c:73: writeByteToDS18B20(0xBE);	//发送读取温度命令
      0000CA 75 82 BE         [24]  562 	mov	dpl,#0xbe
                                    563 ;	.\src\utils\DS18B20.c:74: }
      0000CD 02r00r3B         [24]  564 	ljmp	_writeByteToDS18B20
                                    565 ;------------------------------------------------------------
                                    566 ;Allocation info for local variables in function 'readTemperatureOfDS18B20'
                                    567 ;------------------------------------------------------------
                                    568 ;temp                      Allocated to registers r6 r5 
                                    569 ;tmh                       Allocated to registers r6 
                                    570 ;tml                       Allocated to registers r7 
                                    571 ;------------------------------------------------------------
                                    572 ;	.\src\utils\DS18B20.c:78: int readTemperatureOfDS18B20(void) {
                                    573 ;	-----------------------------------------
                                    574 ;	 function readTemperatureOfDS18B20
                                    575 ;	-----------------------------------------
      0000D0                        576 _readTemperatureOfDS18B20:
                                    577 ;	.\src\utils\DS18B20.c:82: changeTemperatureCommandOfDS18B20();	//先写入转换命令
      0000D0 12r00rA6         [24]  578 	lcall	_changeTemperatureCommandOfDS18B20
                                    579 ;	.\src\utils\DS18B20.c:83: readTemperatureCommandOfDS18B20();	//然后等待转换完后发送读取温度命令
      0000D3 12r00rBB         [24]  580 	lcall	_readTemperatureCommandOfDS18B20
                                    581 ;	.\src\utils\DS18B20.c:84: tml = readByteFromDS18B20();	//读取温度值共16位，先读低字节
      0000D6 12r00r70         [24]  582 	lcall	_readByteFromDS18B20
      0000D9 AF 82            [24]  583 	mov	r7,dpl
                                    584 ;	.\src\utils\DS18B20.c:85: tmh = readByteFromDS18B20();	//再读高字节
      0000DB C0 07            [24]  585 	push	ar7
      0000DD 12r00r70         [24]  586 	lcall	_readByteFromDS18B20
      0000E0 AE 82            [24]  587 	mov	r6,dpl
      0000E2 D0 07            [24]  588 	pop	ar7
                                    589 ;	.\src\utils\DS18B20.c:86: temp = tmh;
                                    590 ;	.\src\utils\DS18B20.c:87: temp <<= 8;
      0000E4 8E 05            [24]  591 	mov	ar5,r6
                                    592 ;	.\src\utils\DS18B20.c:88: temp |= tml;
      0000E6 E4               [12]  593 	clr	a
      0000E7 FE               [12]  594 	mov	r6,a
      0000E8 FC               [12]  595 	mov	r4,a
      0000E9 EF               [12]  596 	mov	a,r7
      0000EA 4E               [12]  597 	orl	a,r6
      0000EB F5 82            [12]  598 	mov	dpl,a
      0000ED EC               [12]  599 	mov	a,r4
      0000EE 4D               [12]  600 	orl	a,r5
      0000EF F5 83            [12]  601 	mov	dph,a
                                    602 ;	.\src\utils\DS18B20.c:90: return temp;
                                    603 ;	.\src\utils\DS18B20.c:91: }
      0000F1 22               [24]  604 	ret
                                    605 ;------------------------------------------------------------
                                    606 ;Allocation info for local variables in function 'getTemperatureOfDS18B20'
                                    607 ;------------------------------------------------------------
                                    608 ;temperature               Allocated with name '_getTemperatureOfDS18B20_PARM_2'
                                    609 ;buf                       Allocated with name '_getTemperatureOfDS18B20_buf_65536_28'
                                    610 ;temp                      Allocated to registers 
                                    611 ;tp                        Allocated to registers r2 r3 r4 r5 
                                    612 ;sloc0                     Allocated with name '_getTemperatureOfDS18B20_sloc0_1_0'
                                    613 ;sloc1                     Allocated with name '_getTemperatureOfDS18B20_sloc1_1_0'
                                    614 ;sloc2                     Allocated with name '_getTemperatureOfDS18B20_sloc2_1_0'
                                    615 ;sloc3                     Allocated with name '_getTemperatureOfDS18B20_sloc3_1_0'
                                    616 ;sloc4                     Allocated with name '_getTemperatureOfDS18B20_sloc4_1_0'
                                    617 ;sloc5                     Allocated with name '_getTemperatureOfDS18B20_sloc5_1_0'
                                    618 ;------------------------------------------------------------
                                    619 ;	.\src\utils\DS18B20.c:93: void getTemperatureOfDS18B20(unsigned char * buf, float * temperature) {
                                    620 ;	-----------------------------------------
                                    621 ;	 function getTemperatureOfDS18B20
                                    622 ;	-----------------------------------------
      0000F2                        623 _getTemperatureOfDS18B20:
      0000F2 85 82*03         [24]  624 	mov	_getTemperatureOfDS18B20_buf_65536_28,dpl
      0000F5 85 83*04         [24]  625 	mov	(_getTemperatureOfDS18B20_buf_65536_28 + 1),dph
      0000F8 85 F0*05         [24]  626 	mov	(_getTemperatureOfDS18B20_buf_65536_28 + 2),b
                                    627 ;	.\src\utils\DS18B20.c:96: temp = readTemperatureOfDS18B20();
      0000FB 12r00rD0         [24]  628 	lcall	_readTemperatureOfDS18B20
      0000FE AB 82            [24]  629 	mov	r3,dpl
                                    630 ;	.\src\utils\DS18B20.c:97: if (temp < 0) {    // 当温度值为负数
      000100 E5 83            [12]  631 	mov	a,dph
      000102 FC               [12]  632 	mov	r4,a
      000103 30 E7 7B         [24]  633 	jnb	acc.7,00102$
                                    634 ;	.\src\utils\DS18B20.c:98: buf[0] = '-';    //   -
      000106 85*03 82         [24]  635 	mov	dpl,_getTemperatureOfDS18B20_buf_65536_28
      000109 85*04 83         [24]  636 	mov	dph,(_getTemperatureOfDS18B20_buf_65536_28 + 1)
      00010C 85*05 F0         [24]  637 	mov	b,(_getTemperatureOfDS18B20_buf_65536_28 + 2)
      00010F 74 2D            [12]  638 	mov	a,#0x2d
      000111 12r00r00         [24]  639 	lcall	__gptrput
                                    640 ;	.\src\utils\DS18B20.c:100: temp = temp - 1;
      000114 EB               [12]  641 	mov	a,r3
      000115 24 FF            [12]  642 	add	a,#0xff
      000117 F9               [12]  643 	mov	r1,a
      000118 EC               [12]  644 	mov	a,r4
      000119 34 FF            [12]  645 	addc	a,#0xff
      00011B FA               [12]  646 	mov	r2,a
                                    647 ;	.\src\utils\DS18B20.c:101: temp = ~temp;
      00011C E9               [12]  648 	mov	a,r1
      00011D F4               [12]  649 	cpl	a
      00011E F5 82            [12]  650 	mov	dpl,a
      000120 EA               [12]  651 	mov	a,r2
      000121 F4               [12]  652 	cpl	a
      000122 F5 83            [12]  653 	mov	dph,a
                                    654 ;	.\src\utils\DS18B20.c:102: tp = temp;
      000124 12r00r00         [24]  655 	lcall	___sint2fs
      000127 A8 82            [24]  656 	mov	r0,dpl
      000129 A9 83            [24]  657 	mov	r1,dph
      00012B AA F0            [24]  658 	mov	r2,b
      00012D FF               [12]  659 	mov	r7,a
                                    660 ;	.\src\utils\DS18B20.c:103: temp = tp * 0.0625 * 100 + 0.5;
      00012E C0 00            [24]  661 	push	ar0
      000130 C0 01            [24]  662 	push	ar1
      000132 C0 02            [24]  663 	push	ar2
      000134 C0 07            [24]  664 	push	ar7
      000136 90 00 00         [24]  665 	mov	dptr,#0x0000
      000139 75 F0 C8         [24]  666 	mov	b,#0xc8
      00013C 74 40            [12]  667 	mov	a,#0x40
      00013E 12r00r00         [24]  668 	lcall	___fsmul
      000141 AA 82            [24]  669 	mov	r2,dpl
      000143 AD 83            [24]  670 	mov	r5,dph
      000145 AE F0            [24]  671 	mov	r6,b
      000147 FF               [12]  672 	mov	r7,a
      000148 E5 81            [12]  673 	mov	a,sp
      00014A 24 FC            [12]  674 	add	a,#0xfc
      00014C F5 81            [12]  675 	mov	sp,a
      00014E E4               [12]  676 	clr	a
      00014F C0 E0            [24]  677 	push	acc
      000151 C0 E0            [24]  678 	push	acc
      000153 C0 E0            [24]  679 	push	acc
      000155 74 3F            [12]  680 	mov	a,#0x3f
      000157 C0 E0            [24]  681 	push	acc
      000159 8A 82            [24]  682 	mov	dpl,r2
      00015B 8D 83            [24]  683 	mov	dph,r5
      00015D 8E F0            [24]  684 	mov	b,r6
      00015F EF               [12]  685 	mov	a,r7
      000160 12r00r00         [24]  686 	lcall	___fsadd
      000163 AA 82            [24]  687 	mov	r2,dpl
      000165 AD 83            [24]  688 	mov	r5,dph
      000167 AE F0            [24]  689 	mov	r6,b
      000169 FF               [12]  690 	mov	r7,a
      00016A E5 81            [12]  691 	mov	a,sp
      00016C 24 FC            [12]  692 	add	a,#0xfc
      00016E F5 81            [12]  693 	mov	sp,a
      000170 8A 82            [24]  694 	mov	dpl,r2
      000172 8D 83            [24]  695 	mov	dph,r5
      000174 8E F0            [24]  696 	mov	b,r6
      000176 EF               [12]  697 	mov	a,r7
      000177 12r00r00         [24]  698 	lcall	___fs2sint
      00017A AE 82            [24]  699 	mov	r6,dpl
      00017C AF 83            [24]  700 	mov	r7,dph
      00017E 02r02r04         [24]  701 	ljmp	00103$
      000181                        702 00102$:
                                    703 ;	.\src\utils\DS18B20.c:108: tp = temp;  //因为数据处理有小数点所以将温度赋给一个浮点型变量
      000181 8B 82            [24]  704 	mov	dpl,r3
      000183 8C 83            [24]  705 	mov	dph,r4
      000185 12r00r00         [24]  706 	lcall	___sint2fs
      000188 AA 82            [24]  707 	mov	r2,dpl
      00018A AB 83            [24]  708 	mov	r3,dph
      00018C AC F0            [24]  709 	mov	r4,b
      00018E FD               [12]  710 	mov	r5,a
                                    711 ;	.\src\utils\DS18B20.c:110: temp = tp * 0.0625 * 100 + 0.5;
      00018F C0 02            [24]  712 	push	ar2
      000191 C0 03            [24]  713 	push	ar3
      000193 C0 04            [24]  714 	push	ar4
      000195 C0 05            [24]  715 	push	ar5
      000197 90 00 00         [24]  716 	mov	dptr,#0x0000
      00019A 75 F0 C8         [24]  717 	mov	b,#0xc8
      00019D 74 40            [12]  718 	mov	a,#0x40
      00019F 12r00r00         [24]  719 	lcall	___fsmul
      0001A2 AA 82            [24]  720 	mov	r2,dpl
      0001A4 AB 83            [24]  721 	mov	r3,dph
      0001A6 AC F0            [24]  722 	mov	r4,b
      0001A8 FD               [12]  723 	mov	r5,a
      0001A9 E5 81            [12]  724 	mov	a,sp
      0001AB 24 FC            [12]  725 	add	a,#0xfc
      0001AD F5 81            [12]  726 	mov	sp,a
      0001AF E4               [12]  727 	clr	a
      0001B0 C0 E0            [24]  728 	push	acc
      0001B2 C0 E0            [24]  729 	push	acc
      0001B4 C0 E0            [24]  730 	push	acc
      0001B6 74 3F            [12]  731 	mov	a,#0x3f
      0001B8 C0 E0            [24]  732 	push	acc
      0001BA 8A 82            [24]  733 	mov	dpl,r2
      0001BC 8B 83            [24]  734 	mov	dph,r3
      0001BE 8C F0            [24]  735 	mov	b,r4
      0001C0 ED               [12]  736 	mov	a,r5
      0001C1 12r00r00         [24]  737 	lcall	___fsadd
      0001C4 AA 82            [24]  738 	mov	r2,dpl
      0001C6 AB 83            [24]  739 	mov	r3,dph
      0001C8 AC F0            [24]  740 	mov	r4,b
      0001CA FD               [12]  741 	mov	r5,a
      0001CB E5 81            [12]  742 	mov	a,sp
      0001CD 24 FC            [12]  743 	add	a,#0xfc
      0001CF F5 81            [12]  744 	mov	sp,a
      0001D1 8A 82            [24]  745 	mov	dpl,r2
      0001D3 8B 83            [24]  746 	mov	dph,r3
      0001D5 8C F0            [24]  747 	mov	b,r4
      0001D7 ED               [12]  748 	mov	a,r5
      0001D8 12r00r00         [24]  749 	lcall	___fs2sint
                                    750 ;	.\src\utils\DS18B20.c:114: buf[0] = (temp / 10000) + '0';
      0001DB AE 82            [24]  751 	mov	r6,dpl
      0001DD AF 83            [24]  752 	mov	r7,dph
      0001DF 75*00 10         [24]  753 	mov	__divsint_PARM_2,#0x10
      0001E2 75*01 27         [24]  754 	mov	(__divsint_PARM_2 + 1),#0x27
      0001E5 C0 07            [24]  755 	push	ar7
      0001E7 C0 06            [24]  756 	push	ar6
      0001E9 12r00r00         [24]  757 	lcall	__divsint
      0001EC AC 82            [24]  758 	mov	r4,dpl
      0001EE AD 83            [24]  759 	mov	r5,dph
      0001F0 D0 06            [24]  760 	pop	ar6
      0001F2 D0 07            [24]  761 	pop	ar7
      0001F4 74 30            [12]  762 	mov	a,#0x30
      0001F6 2C               [12]  763 	add	a,r4
      0001F7 FC               [12]  764 	mov	r4,a
      0001F8 85*03 82         [24]  765 	mov	dpl,_getTemperatureOfDS18B20_buf_65536_28
      0001FB 85*04 83         [24]  766 	mov	dph,(_getTemperatureOfDS18B20_buf_65536_28 + 1)
      0001FE 85*05 F0         [24]  767 	mov	b,(_getTemperatureOfDS18B20_buf_65536_28 + 2)
      000201 12r00r00         [24]  768 	lcall	__gptrput
      000204                        769 00103$:
                                    770 ;	.\src\utils\DS18B20.c:116: buf[1] = (temp % 10000 / 1000) + '0';
      000204 74 01            [12]  771 	mov	a,#0x01
      000206 25*03            [12]  772 	add	a,_getTemperatureOfDS18B20_buf_65536_28
      000208 F5*12            [12]  773 	mov	_getTemperatureOfDS18B20_sloc4_1_0,a
      00020A E4               [12]  774 	clr	a
      00020B 35*04            [12]  775 	addc	a,(_getTemperatureOfDS18B20_buf_65536_28 + 1)
      00020D F5*13            [12]  776 	mov	(_getTemperatureOfDS18B20_sloc4_1_0 + 1),a
      00020F 85*05*14         [24]  777 	mov	(_getTemperatureOfDS18B20_sloc4_1_0 + 2),(_getTemperatureOfDS18B20_buf_65536_28 + 2)
      000212 75*00 10         [24]  778 	mov	__modsint_PARM_2,#0x10
      000215 75*01 27         [24]  779 	mov	(__modsint_PARM_2 + 1),#0x27
      000218 8E 82            [24]  780 	mov	dpl,r6
      00021A 8F 83            [24]  781 	mov	dph,r7
      00021C C0 07            [24]  782 	push	ar7
      00021E C0 06            [24]  783 	push	ar6
      000220 12r00r00         [24]  784 	lcall	__modsint
      000223 75*00 E8         [24]  785 	mov	__divsint_PARM_2,#0xe8
      000226 75*01 03         [24]  786 	mov	(__divsint_PARM_2 + 1),#0x03
      000229 12r00r00         [24]  787 	lcall	__divsint
      00022C A9 82            [24]  788 	mov	r1,dpl
      00022E D0 06            [24]  789 	pop	ar6
      000230 D0 07            [24]  790 	pop	ar7
      000232 74 30            [12]  791 	mov	a,#0x30
      000234 29               [12]  792 	add	a,r1
      000235 85*12 82         [24]  793 	mov	dpl,_getTemperatureOfDS18B20_sloc4_1_0
      000238 85*13 83         [24]  794 	mov	dph,(_getTemperatureOfDS18B20_sloc4_1_0 + 1)
      00023B 85*14 F0         [24]  795 	mov	b,(_getTemperatureOfDS18B20_sloc4_1_0 + 2)
      00023E 12r00r00         [24]  796 	lcall	__gptrput
                                    797 ;	.\src\utils\DS18B20.c:117: buf[2] = (temp % 1000 / 100) + '0';
      000241 74 02            [12]  798 	mov	a,#0x02
      000243 25*03            [12]  799 	add	a,_getTemperatureOfDS18B20_buf_65536_28
      000245 F5*06            [12]  800 	mov	_getTemperatureOfDS18B20_sloc0_1_0,a
      000247 E4               [12]  801 	clr	a
      000248 35*04            [12]  802 	addc	a,(_getTemperatureOfDS18B20_buf_65536_28 + 1)
      00024A F5*07            [12]  803 	mov	(_getTemperatureOfDS18B20_sloc0_1_0 + 1),a
      00024C 85*05*08         [24]  804 	mov	(_getTemperatureOfDS18B20_sloc0_1_0 + 2),(_getTemperatureOfDS18B20_buf_65536_28 + 2)
      00024F 75*00 E8         [24]  805 	mov	__modsint_PARM_2,#0xe8
      000252 75*01 03         [24]  806 	mov	(__modsint_PARM_2 + 1),#0x03
      000255 8E 82            [24]  807 	mov	dpl,r6
      000257 8F 83            [24]  808 	mov	dph,r7
      000259 C0 07            [24]  809 	push	ar7
      00025B C0 06            [24]  810 	push	ar6
      00025D 12r00r00         [24]  811 	lcall	__modsint
      000260 75*00 64         [24]  812 	mov	__divsint_PARM_2,#0x64
      000263 75*01 00         [24]  813 	mov	(__divsint_PARM_2 + 1),#0x00
      000266 12r00r00         [24]  814 	lcall	__divsint
      000269 A9 82            [24]  815 	mov	r1,dpl
      00026B D0 06            [24]  816 	pop	ar6
      00026D D0 07            [24]  817 	pop	ar7
      00026F 74 30            [12]  818 	mov	a,#0x30
      000271 29               [12]  819 	add	a,r1
      000272 85*06 82         [24]  820 	mov	dpl,_getTemperatureOfDS18B20_sloc0_1_0
      000275 85*07 83         [24]  821 	mov	dph,(_getTemperatureOfDS18B20_sloc0_1_0 + 1)
      000278 85*08 F0         [24]  822 	mov	b,(_getTemperatureOfDS18B20_sloc0_1_0 + 2)
      00027B 12r00r00         [24]  823 	lcall	__gptrput
                                    824 ;	.\src\utils\DS18B20.c:118: buf[3] = '.';
      00027E 74 03            [12]  825 	mov	a,#0x03
      000280 25*03            [12]  826 	add	a,_getTemperatureOfDS18B20_buf_65536_28
      000282 F8               [12]  827 	mov	r0,a
      000283 E4               [12]  828 	clr	a
      000284 35*04            [12]  829 	addc	a,(_getTemperatureOfDS18B20_buf_65536_28 + 1)
      000286 F9               [12]  830 	mov	r1,a
      000287 AA*05            [24]  831 	mov	r2,(_getTemperatureOfDS18B20_buf_65536_28 + 2)
      000289 88 82            [24]  832 	mov	dpl,r0
      00028B 89 83            [24]  833 	mov	dph,r1
      00028D 8A F0            [24]  834 	mov	b,r2
      00028F 74 2E            [12]  835 	mov	a,#0x2e
      000291 12r00r00         [24]  836 	lcall	__gptrput
                                    837 ;	.\src\utils\DS18B20.c:119: buf[4] = (temp % 100 / 10) + '0';
      000294 74 04            [12]  838 	mov	a,#0x04
      000296 25*03            [12]  839 	add	a,_getTemperatureOfDS18B20_buf_65536_28
      000298 F5*09            [12]  840 	mov	_getTemperatureOfDS18B20_sloc1_1_0,a
      00029A E4               [12]  841 	clr	a
      00029B 35*04            [12]  842 	addc	a,(_getTemperatureOfDS18B20_buf_65536_28 + 1)
      00029D F5*0A            [12]  843 	mov	(_getTemperatureOfDS18B20_sloc1_1_0 + 1),a
      00029F 85*05*0B         [24]  844 	mov	(_getTemperatureOfDS18B20_sloc1_1_0 + 2),(_getTemperatureOfDS18B20_buf_65536_28 + 2)
      0002A2 75*00 64         [24]  845 	mov	__modsint_PARM_2,#0x64
      0002A5 75*01 00         [24]  846 	mov	(__modsint_PARM_2 + 1),#0x00
      0002A8 8E 82            [24]  847 	mov	dpl,r6
      0002AA 8F 83            [24]  848 	mov	dph,r7
      0002AC 12r00r00         [24]  849 	lcall	__modsint
      0002AF 75*00 0A         [24]  850 	mov	__divsint_PARM_2,#0x0a
      0002B2 75*01 00         [24]  851 	mov	(__divsint_PARM_2 + 1),#0x00
      0002B5 12r00r00         [24]  852 	lcall	__divsint
      0002B8 AE 82            [24]  853 	mov	r6,dpl
      0002BA 74 30            [12]  854 	mov	a,#0x30
      0002BC 2E               [12]  855 	add	a,r6
      0002BD 85*09 82         [24]  856 	mov	dpl,_getTemperatureOfDS18B20_sloc1_1_0
      0002C0 85*0A 83         [24]  857 	mov	dph,(_getTemperatureOfDS18B20_sloc1_1_0 + 1)
      0002C3 85*0B F0         [24]  858 	mov	b,(_getTemperatureOfDS18B20_sloc1_1_0 + 2)
      0002C6 12r00r00         [24]  859 	lcall	__gptrput
                                    860 ;	.\src\utils\DS18B20.c:120: buf[5] = 0xDF;
      0002C9 74 05            [12]  861 	mov	a,#0x05
      0002CB 25*03            [12]  862 	add	a,_getTemperatureOfDS18B20_buf_65536_28
      0002CD FA               [12]  863 	mov	r2,a
      0002CE E4               [12]  864 	clr	a
      0002CF 35*04            [12]  865 	addc	a,(_getTemperatureOfDS18B20_buf_65536_28 + 1)
      0002D1 FE               [12]  866 	mov	r6,a
      0002D2 AF*05            [24]  867 	mov	r7,(_getTemperatureOfDS18B20_buf_65536_28 + 2)
      0002D4 8A 82            [24]  868 	mov	dpl,r2
      0002D6 8E 83            [24]  869 	mov	dph,r6
      0002D8 8F F0            [24]  870 	mov	b,r7
      0002DA 74 DF            [12]  871 	mov	a,#0xdf
      0002DC 12r00r00         [24]  872 	lcall	__gptrput
                                    873 ;	.\src\utils\DS18B20.c:121: buf[6] = 'C';
      0002DF 74 06            [12]  874 	mov	a,#0x06
      0002E1 25*03            [12]  875 	add	a,_getTemperatureOfDS18B20_buf_65536_28
      0002E3 FA               [12]  876 	mov	r2,a
      0002E4 E4               [12]  877 	clr	a
      0002E5 35*04            [12]  878 	addc	a,(_getTemperatureOfDS18B20_buf_65536_28 + 1)
      0002E7 FE               [12]  879 	mov	r6,a
      0002E8 AF*05            [24]  880 	mov	r7,(_getTemperatureOfDS18B20_buf_65536_28 + 2)
      0002EA 8A 82            [24]  881 	mov	dpl,r2
      0002EC 8E 83            [24]  882 	mov	dph,r6
      0002EE 8F F0            [24]  883 	mov	b,r7
      0002F0 74 43            [12]  884 	mov	a,#0x43
      0002F2 12r00r00         [24]  885 	lcall	__gptrput
                                    886 ;	.\src\utils\DS18B20.c:124: if (buf[0] == '-') {
      0002F5 85*03 82         [24]  887 	mov	dpl,_getTemperatureOfDS18B20_buf_65536_28
      0002F8 85*04 83         [24]  888 	mov	dph,(_getTemperatureOfDS18B20_buf_65536_28 + 1)
      0002FB 85*05 F0         [24]  889 	mov	b,(_getTemperatureOfDS18B20_buf_65536_28 + 2)
      0002FE 12r00r00         [24]  890 	lcall	__gptrget
      000301 FF               [12]  891 	mov	r7,a
      000302 BF 2D 02         [24]  892 	cjne	r7,#0x2d,00141$
      000305 80 03            [24]  893 	sjmp	00142$
      000307                        894 00141$:
      000307 02r03rC3         [24]  895 	ljmp	00105$
      00030A                        896 00142$:
                                    897 ;	.\src\utils\DS18B20.c:125: tp = (float)(-1 * ((int)(buf[1] - '0') * 10 + (int)(buf[2] - '0') + (int)(buf[4] - '0') * 0.1));
      00030A 85*12 82         [24]  898 	mov	dpl,_getTemperatureOfDS18B20_sloc4_1_0
      00030D 85*13 83         [24]  899 	mov	dph,(_getTemperatureOfDS18B20_sloc4_1_0 + 1)
      000310 85*14 F0         [24]  900 	mov	b,(_getTemperatureOfDS18B20_sloc4_1_0 + 2)
      000313 12r00r00         [24]  901 	lcall	__gptrget
      000316 7E 00            [12]  902 	mov	r6,#0x00
      000318 24 D0            [12]  903 	add	a,#0xd0
      00031A F5*00            [12]  904 	mov	__mulint_PARM_2,a
      00031C EE               [12]  905 	mov	a,r6
      00031D 34 FF            [12]  906 	addc	a,#0xff
      00031F F5*01            [12]  907 	mov	(__mulint_PARM_2 + 1),a
      000321 90 00 0A         [24]  908 	mov	dptr,#0x000a
      000324 12r00r00         [24]  909 	lcall	__mulint
      000327 AE 82            [24]  910 	mov	r6,dpl
      000329 AF 83            [24]  911 	mov	r7,dph
      00032B 85*06 82         [24]  912 	mov	dpl,_getTemperatureOfDS18B20_sloc0_1_0
      00032E 85*07 83         [24]  913 	mov	dph,(_getTemperatureOfDS18B20_sloc0_1_0 + 1)
      000331 85*08 F0         [24]  914 	mov	b,(_getTemperatureOfDS18B20_sloc0_1_0 + 2)
      000334 12r00r00         [24]  915 	lcall	__gptrget
      000337 7A 00            [12]  916 	mov	r2,#0x00
      000339 24 D0            [12]  917 	add	a,#0xd0
      00033B F9               [12]  918 	mov	r1,a
      00033C EA               [12]  919 	mov	a,r2
      00033D 34 FF            [12]  920 	addc	a,#0xff
      00033F FA               [12]  921 	mov	r2,a
      000340 E9               [12]  922 	mov	a,r1
      000341 2E               [12]  923 	add	a,r6
      000342 F5*0C            [12]  924 	mov	_getTemperatureOfDS18B20_sloc2_1_0,a
      000344 EA               [12]  925 	mov	a,r2
      000345 3F               [12]  926 	addc	a,r7
      000346 F5*0D            [12]  927 	mov	(_getTemperatureOfDS18B20_sloc2_1_0 + 1),a
      000348 85*09 82         [24]  928 	mov	dpl,_getTemperatureOfDS18B20_sloc1_1_0
      00034B 85*0A 83         [24]  929 	mov	dph,(_getTemperatureOfDS18B20_sloc1_1_0 + 1)
      00034E 85*0B F0         [24]  930 	mov	b,(_getTemperatureOfDS18B20_sloc1_1_0 + 2)
      000351 12r00r00         [24]  931 	lcall	__gptrget
      000354 7A 00            [12]  932 	mov	r2,#0x00
      000356 24 D0            [12]  933 	add	a,#0xd0
      000358 F5 82            [12]  934 	mov	dpl,a
      00035A EA               [12]  935 	mov	a,r2
      00035B 34 FF            [12]  936 	addc	a,#0xff
      00035D F5 83            [12]  937 	mov	dph,a
      00035F 12r00r00         [24]  938 	lcall	___sint2fs
      000362 A8 82            [24]  939 	mov	r0,dpl
      000364 A9 83            [24]  940 	mov	r1,dph
      000366 AA F0            [24]  941 	mov	r2,b
      000368 FF               [12]  942 	mov	r7,a
      000369 C0 00            [24]  943 	push	ar0
      00036B C0 01            [24]  944 	push	ar1
      00036D C0 02            [24]  945 	push	ar2
      00036F C0 07            [24]  946 	push	ar7
      000371 90 CC CD         [24]  947 	mov	dptr,#0xcccd
      000374 75 F0 CC         [24]  948 	mov	b,#0xcc
      000377 74 3D            [12]  949 	mov	a,#0x3d
      000379 12r00r00         [24]  950 	lcall	___fsmul
      00037C 85 82*0E         [24]  951 	mov	_getTemperatureOfDS18B20_sloc3_1_0,dpl
      00037F 85 83*0F         [24]  952 	mov	(_getTemperatureOfDS18B20_sloc3_1_0 + 1),dph
      000382 85 F0*10         [24]  953 	mov	(_getTemperatureOfDS18B20_sloc3_1_0 + 2),b
      000385 F5*11            [12]  954 	mov	(_getTemperatureOfDS18B20_sloc3_1_0 + 3),a
      000387 E5 81            [12]  955 	mov	a,sp
      000389 24 FC            [12]  956 	add	a,#0xfc
      00038B F5 81            [12]  957 	mov	sp,a
      00038D 85*0C 82         [24]  958 	mov	dpl,_getTemperatureOfDS18B20_sloc2_1_0
      000390 85*0D 83         [24]  959 	mov	dph,(_getTemperatureOfDS18B20_sloc2_1_0 + 1)
      000393 12r00r00         [24]  960 	lcall	___sint2fs
      000396 A8 82            [24]  961 	mov	r0,dpl
      000398 AA 83            [24]  962 	mov	r2,dph
      00039A AE F0            [24]  963 	mov	r6,b
      00039C FF               [12]  964 	mov	r7,a
      00039D C0*0E            [24]  965 	push	_getTemperatureOfDS18B20_sloc3_1_0
      00039F C0*0F            [24]  966 	push	(_getTemperatureOfDS18B20_sloc3_1_0 + 1)
      0003A1 C0*10            [24]  967 	push	(_getTemperatureOfDS18B20_sloc3_1_0 + 2)
      0003A3 C0*11            [24]  968 	push	(_getTemperatureOfDS18B20_sloc3_1_0 + 3)
      0003A5 88 82            [24]  969 	mov	dpl,r0
      0003A7 8A 83            [24]  970 	mov	dph,r2
      0003A9 8E F0            [24]  971 	mov	b,r6
      0003AB EF               [12]  972 	mov	a,r7
      0003AC 12r00r00         [24]  973 	lcall	___fsadd
      0003AF A9 82            [24]  974 	mov	r1,dpl
      0003B1 AA 83            [24]  975 	mov	r2,dph
      0003B3 AE F0            [24]  976 	mov	r6,b
      0003B5 FF               [12]  977 	mov	r7,a
      0003B6 E5 81            [12]  978 	mov	a,sp
      0003B8 24 FC            [12]  979 	add	a,#0xfc
      0003BA F5 81            [12]  980 	mov	sp,a
      0003BC EF               [12]  981 	mov	a,r7
      0003BD B2 E7            [12]  982 	cpl	acc.7
      0003BF FF               [12]  983 	mov	r7,a
      0003C0 02r04rA4         [24]  984 	ljmp	00106$
      0003C3                        985 00105$:
                                    986 ;	.\src\utils\DS18B20.c:127: tp = (float)((int)(buf[0] - '0') * 100 + (int)(buf[1] - '0') * 10 + (int)(buf[2] - '0') + (int)(buf[4] - '0') * 0.1);
      0003C3 85*03 82         [24]  987 	mov	dpl,_getTemperatureOfDS18B20_buf_65536_28
      0003C6 85*04 83         [24]  988 	mov	dph,(_getTemperatureOfDS18B20_buf_65536_28 + 1)
      0003C9 85*05 F0         [24]  989 	mov	b,(_getTemperatureOfDS18B20_buf_65536_28 + 2)
      0003CC 12r00r00         [24]  990 	lcall	__gptrget
      0003CF 7D 00            [12]  991 	mov	r5,#0x00
      0003D1 24 D0            [12]  992 	add	a,#0xd0
      0003D3 F5*00            [12]  993 	mov	__mulint_PARM_2,a
      0003D5 ED               [12]  994 	mov	a,r5
      0003D6 34 FF            [12]  995 	addc	a,#0xff
      0003D8 F5*01            [12]  996 	mov	(__mulint_PARM_2 + 1),a
      0003DA 90 00 64         [24]  997 	mov	dptr,#0x0064
      0003DD 12r00r00         [24]  998 	lcall	__mulint
      0003E0 AC 82            [24]  999 	mov	r4,dpl
      0003E2 AD 83            [24] 1000 	mov	r5,dph
      0003E4 85*12 82         [24] 1001 	mov	dpl,_getTemperatureOfDS18B20_sloc4_1_0
      0003E7 85*13 83         [24] 1002 	mov	dph,(_getTemperatureOfDS18B20_sloc4_1_0 + 1)
      0003EA 85*14 F0         [24] 1003 	mov	b,(_getTemperatureOfDS18B20_sloc4_1_0 + 2)
      0003ED 12r00r00         [24] 1004 	lcall	__gptrget
      0003F0 7B 00            [12] 1005 	mov	r3,#0x00
      0003F2 24 D0            [12] 1006 	add	a,#0xd0
      0003F4 F5*00            [12] 1007 	mov	__mulint_PARM_2,a
      0003F6 EB               [12] 1008 	mov	a,r3
      0003F7 34 FF            [12] 1009 	addc	a,#0xff
      0003F9 F5*01            [12] 1010 	mov	(__mulint_PARM_2 + 1),a
      0003FB 90 00 0A         [24] 1011 	mov	dptr,#0x000a
      0003FE C0 05            [24] 1012 	push	ar5
      000400 C0 04            [24] 1013 	push	ar4
      000402 12r00r00         [24] 1014 	lcall	__mulint
      000405 A8 82            [24] 1015 	mov	r0,dpl
      000407 AB 83            [24] 1016 	mov	r3,dph
      000409 D0 04            [24] 1017 	pop	ar4
      00040B D0 05            [24] 1018 	pop	ar5
      00040D E8               [12] 1019 	mov	a,r0
      00040E 2C               [12] 1020 	add	a,r4
      00040F FC               [12] 1021 	mov	r4,a
      000410 EB               [12] 1022 	mov	a,r3
      000411 3D               [12] 1023 	addc	a,r5
      000412 FD               [12] 1024 	mov	r5,a
      000413 85*06 82         [24] 1025 	mov	dpl,_getTemperatureOfDS18B20_sloc0_1_0
      000416 85*07 83         [24] 1026 	mov	dph,(_getTemperatureOfDS18B20_sloc0_1_0 + 1)
      000419 85*08 F0         [24] 1027 	mov	b,(_getTemperatureOfDS18B20_sloc0_1_0 + 2)
      00041C 12r00r00         [24] 1028 	lcall	__gptrget
      00041F 7B 00            [12] 1029 	mov	r3,#0x00
      000421 24 D0            [12] 1030 	add	a,#0xd0
      000423 F8               [12] 1031 	mov	r0,a
      000424 EB               [12] 1032 	mov	a,r3
      000425 34 FF            [12] 1033 	addc	a,#0xff
      000427 FB               [12] 1034 	mov	r3,a
      000428 E8               [12] 1035 	mov	a,r0
      000429 2C               [12] 1036 	add	a,r4
      00042A F5*0E            [12] 1037 	mov	_getTemperatureOfDS18B20_sloc3_1_0,a
      00042C EB               [12] 1038 	mov	a,r3
      00042D 3D               [12] 1039 	addc	a,r5
      00042E F5*0F            [12] 1040 	mov	(_getTemperatureOfDS18B20_sloc3_1_0 + 1),a
      000430 85*09 82         [24] 1041 	mov	dpl,_getTemperatureOfDS18B20_sloc1_1_0
      000433 85*0A 83         [24] 1042 	mov	dph,(_getTemperatureOfDS18B20_sloc1_1_0 + 1)
      000436 85*0B F0         [24] 1043 	mov	b,(_getTemperatureOfDS18B20_sloc1_1_0 + 2)
      000439 12r00r00         [24] 1044 	lcall	__gptrget
      00043C 7B 00            [12] 1045 	mov	r3,#0x00
      00043E 24 D0            [12] 1046 	add	a,#0xd0
      000440 F5 82            [12] 1047 	mov	dpl,a
      000442 EB               [12] 1048 	mov	a,r3
      000443 34 FF            [12] 1049 	addc	a,#0xff
      000445 F5 83            [12] 1050 	mov	dph,a
      000447 12r00r00         [24] 1051 	lcall	___sint2fs
      00044A A8 82            [24] 1052 	mov	r0,dpl
      00044C AB 83            [24] 1053 	mov	r3,dph
      00044E AC F0            [24] 1054 	mov	r4,b
      000450 FD               [12] 1055 	mov	r5,a
      000451 C0 00            [24] 1056 	push	ar0
      000453 C0 03            [24] 1057 	push	ar3
      000455 C0 04            [24] 1058 	push	ar4
      000457 C0 05            [24] 1059 	push	ar5
      000459 90 CC CD         [24] 1060 	mov	dptr,#0xcccd
      00045C 75 F0 CC         [24] 1061 	mov	b,#0xcc
      00045F 74 3D            [12] 1062 	mov	a,#0x3d
      000461 12r00r00         [24] 1063 	lcall	___fsmul
      000464 85 82*15         [24] 1064 	mov	_getTemperatureOfDS18B20_sloc5_1_0,dpl
      000467 85 83*16         [24] 1065 	mov	(_getTemperatureOfDS18B20_sloc5_1_0 + 1),dph
      00046A 85 F0*17         [24] 1066 	mov	(_getTemperatureOfDS18B20_sloc5_1_0 + 2),b
      00046D F5*18            [12] 1067 	mov	(_getTemperatureOfDS18B20_sloc5_1_0 + 3),a
      00046F E5 81            [12] 1068 	mov	a,sp
      000471 24 FC            [12] 1069 	add	a,#0xfc
      000473 F5 81            [12] 1070 	mov	sp,a
      000475 85*0E 82         [24] 1071 	mov	dpl,_getTemperatureOfDS18B20_sloc3_1_0
      000478 85*0F 83         [24] 1072 	mov	dph,(_getTemperatureOfDS18B20_sloc3_1_0 + 1)
      00047B 12r00r00         [24] 1073 	lcall	___sint2fs
      00047E A8 82            [24] 1074 	mov	r0,dpl
      000480 AB 83            [24] 1075 	mov	r3,dph
      000482 AC F0            [24] 1076 	mov	r4,b
      000484 FD               [12] 1077 	mov	r5,a
      000485 C0*15            [24] 1078 	push	_getTemperatureOfDS18B20_sloc5_1_0
      000487 C0*16            [24] 1079 	push	(_getTemperatureOfDS18B20_sloc5_1_0 + 1)
      000489 C0*17            [24] 1080 	push	(_getTemperatureOfDS18B20_sloc5_1_0 + 2)
      00048B C0*18            [24] 1081 	push	(_getTemperatureOfDS18B20_sloc5_1_0 + 3)
      00048D 88 82            [24] 1082 	mov	dpl,r0
      00048F 8B 83            [24] 1083 	mov	dph,r3
      000491 8C F0            [24] 1084 	mov	b,r4
      000493 ED               [12] 1085 	mov	a,r5
      000494 12r00r00         [24] 1086 	lcall	___fsadd
      000497 A9 82            [24] 1087 	mov	r1,dpl
      000499 AA 83            [24] 1088 	mov	r2,dph
      00049B AE F0            [24] 1089 	mov	r6,b
      00049D FF               [12] 1090 	mov	r7,a
      00049E E5 81            [12] 1091 	mov	a,sp
      0004A0 24 FC            [12] 1092 	add	a,#0xfc
      0004A2 F5 81            [12] 1093 	mov	sp,a
      0004A4                       1094 00106$:
                                   1095 ;	.\src\utils\DS18B20.c:129: *temperature = tp;
      0004A4 AB*00            [24] 1096 	mov	r3,_getTemperatureOfDS18B20_PARM_2
      0004A6 AC*01            [24] 1097 	mov	r4,(_getTemperatureOfDS18B20_PARM_2 + 1)
      0004A8 AD*02            [24] 1098 	mov	r5,(_getTemperatureOfDS18B20_PARM_2 + 2)
      0004AA 8B 82            [24] 1099 	mov	dpl,r3
      0004AC 8C 83            [24] 1100 	mov	dph,r4
      0004AE 8D F0            [24] 1101 	mov	b,r5
      0004B0 E9               [12] 1102 	mov	a,r1
      0004B1 12r00r00         [24] 1103 	lcall	__gptrput
      0004B4 A3               [24] 1104 	inc	dptr
      0004B5 EA               [12] 1105 	mov	a,r2
      0004B6 12r00r00         [24] 1106 	lcall	__gptrput
      0004B9 A3               [24] 1107 	inc	dptr
      0004BA EE               [12] 1108 	mov	a,r6
      0004BB 12r00r00         [24] 1109 	lcall	__gptrput
      0004BE A3               [24] 1110 	inc	dptr
      0004BF EF               [12] 1111 	mov	a,r7
      0004C0 12r00r00         [24] 1112 	lcall	__gptrput
                                   1113 ;	.\src\utils\DS18B20.c:132: if (buf[0] == '0') buf[0] = ' ';
      0004C3 85*03 82         [24] 1114 	mov	dpl,_getTemperatureOfDS18B20_buf_65536_28
      0004C6 85*04 83         [24] 1115 	mov	dph,(_getTemperatureOfDS18B20_buf_65536_28 + 1)
      0004C9 85*05 F0         [24] 1116 	mov	b,(_getTemperatureOfDS18B20_buf_65536_28 + 2)
      0004CC 12r00r00         [24] 1117 	lcall	__gptrget
      0004CF FF               [12] 1118 	mov	r7,a
      0004D0 BF 30 0E         [24] 1119 	cjne	r7,#0x30,00108$
      0004D3 85*03 82         [24] 1120 	mov	dpl,_getTemperatureOfDS18B20_buf_65536_28
      0004D6 85*04 83         [24] 1121 	mov	dph,(_getTemperatureOfDS18B20_buf_65536_28 + 1)
      0004D9 85*05 F0         [24] 1122 	mov	b,(_getTemperatureOfDS18B20_buf_65536_28 + 2)
      0004DC 74 20            [12] 1123 	mov	a,#0x20
      0004DE 12r00r00         [24] 1124 	lcall	__gptrput
      0004E1                       1125 00108$:
                                   1126 ;	.\src\utils\DS18B20.c:134: if (buf[1] == '0' && (buf[0] == ' '||buf[0] == '-')) {
      0004E1 85*12 82         [24] 1127 	mov	dpl,_getTemperatureOfDS18B20_sloc4_1_0
      0004E4 85*13 83         [24] 1128 	mov	dph,(_getTemperatureOfDS18B20_sloc4_1_0 + 1)
      0004E7 85*14 F0         [24] 1129 	mov	b,(_getTemperatureOfDS18B20_sloc4_1_0 + 2)
      0004EA 12r00r00         [24] 1130 	lcall	__gptrget
      0004ED FF               [12] 1131 	mov	r7,a
      0004EE BF 30 49         [24] 1132 	cjne	r7,#0x30,00113$
      0004F1 85*03 82         [24] 1133 	mov	dpl,_getTemperatureOfDS18B20_buf_65536_28
      0004F4 85*04 83         [24] 1134 	mov	dph,(_getTemperatureOfDS18B20_buf_65536_28 + 1)
      0004F7 85*05 F0         [24] 1135 	mov	b,(_getTemperatureOfDS18B20_buf_65536_28 + 2)
      0004FA 12r00r00         [24] 1136 	lcall	__gptrget
      0004FD FF               [12] 1137 	mov	r7,a
      0004FE BF 20 02         [24] 1138 	cjne	r7,#0x20,00147$
      000501 80 10            [24] 1139 	sjmp	00109$
      000503                       1140 00147$:
      000503 85*03 82         [24] 1141 	mov	dpl,_getTemperatureOfDS18B20_buf_65536_28
      000506 85*04 83         [24] 1142 	mov	dph,(_getTemperatureOfDS18B20_buf_65536_28 + 1)
      000509 85*05 F0         [24] 1143 	mov	b,(_getTemperatureOfDS18B20_buf_65536_28 + 2)
      00050C 12r00r00         [24] 1144 	lcall	__gptrget
      00050F FF               [12] 1145 	mov	r7,a
      000510 BF 2D 27         [24] 1146 	cjne	r7,#0x2d,00113$
      000513                       1147 00109$:
                                   1148 ;	.\src\utils\DS18B20.c:135: buf[1] = buf[0];
      000513 85*03 82         [24] 1149 	mov	dpl,_getTemperatureOfDS18B20_buf_65536_28
      000516 85*04 83         [24] 1150 	mov	dph,(_getTemperatureOfDS18B20_buf_65536_28 + 1)
      000519 85*05 F0         [24] 1151 	mov	b,(_getTemperatureOfDS18B20_buf_65536_28 + 2)
      00051C 12r00r00         [24] 1152 	lcall	__gptrget
      00051F FF               [12] 1153 	mov	r7,a
      000520 85*12 82         [24] 1154 	mov	dpl,_getTemperatureOfDS18B20_sloc4_1_0
      000523 85*13 83         [24] 1155 	mov	dph,(_getTemperatureOfDS18B20_sloc4_1_0 + 1)
      000526 85*14 F0         [24] 1156 	mov	b,(_getTemperatureOfDS18B20_sloc4_1_0 + 2)
      000529 12r00r00         [24] 1157 	lcall	__gptrput
                                   1158 ;	.\src\utils\DS18B20.c:136: buf[0] = ' ';
      00052C 85*03 82         [24] 1159 	mov	dpl,_getTemperatureOfDS18B20_buf_65536_28
      00052F 85*04 83         [24] 1160 	mov	dph,(_getTemperatureOfDS18B20_buf_65536_28 + 1)
      000532 85*05 F0         [24] 1161 	mov	b,(_getTemperatureOfDS18B20_buf_65536_28 + 2)
      000535 74 20            [12] 1162 	mov	a,#0x20
                                   1163 ;	.\src\utils\DS18B20.c:139: }
      000537 02r00r00         [24] 1164 	ljmp	__gptrput
      00053A                       1165 00113$:
      00053A 22               [24] 1166 	ret
                                   1167 	.area CSEG    (CODE)
                                   1168 	.area CONST   (CODE)
                                   1169 	.area XINIT   (CODE)
                                   1170 	.area CABS    (ABS,CODE)
