                                      1 ;--------------------------------------------------------
                                      2 ; File Created by SDCC : free open source ANSI-C Compiler
                                      3 ; Version 4.2.0 #13081 (MINGW64)
                                      4 ;--------------------------------------------------------
                                      5 	.module startupScreen
                                      6 	.optsdcc -mmcs51 --model-small
                                      7 	
                                      8 ;--------------------------------------------------------
                                      9 ; Public variables in this module
                                     10 ;--------------------------------------------------------
                                     11 	.globl _putStringOnLCD1602
                                     12 	.globl _writeCharOnLCD1602
                                     13 	.globl _delayOneSecond
                                     14 	.globl _delayOneMillisecond
                                     15 	.globl _CP_RL2
                                     16 	.globl _C_T2
                                     17 	.globl _TR2
                                     18 	.globl _EXEN2
                                     19 	.globl _TCLK
                                     20 	.globl _RCLK
                                     21 	.globl _EXF2
                                     22 	.globl _TF2
                                     23 	.globl _T2
                                     24 	.globl _T2EX
                                     25 	.globl _RI
                                     26 	.globl _TI
                                     27 	.globl _RB8
                                     28 	.globl _TB8
                                     29 	.globl _REN
                                     30 	.globl _SM2
                                     31 	.globl _SM1
                                     32 	.globl _SM0
                                     33 	.globl _RXD
                                     34 	.globl _TXD
                                     35 	.globl _INT0
                                     36 	.globl _INT1
                                     37 	.globl _T0
                                     38 	.globl _T1
                                     39 	.globl _WR
                                     40 	.globl _RD
                                     41 	.globl _PX0
                                     42 	.globl _PT0
                                     43 	.globl _PX1
                                     44 	.globl _PT1
                                     45 	.globl _PS
                                     46 	.globl _PT2
                                     47 	.globl _EX0
                                     48 	.globl _ET0
                                     49 	.globl _EX1
                                     50 	.globl _ET1
                                     51 	.globl _ES
                                     52 	.globl _ET2
                                     53 	.globl _EA
                                     54 	.globl _IT0
                                     55 	.globl _IE0
                                     56 	.globl _IT1
                                     57 	.globl _IE1
                                     58 	.globl _TR0
                                     59 	.globl _TF0
                                     60 	.globl _TR1
                                     61 	.globl _TF1
                                     62 	.globl _P
                                     63 	.globl _OV
                                     64 	.globl _RS0
                                     65 	.globl _RS1
                                     66 	.globl _F0
                                     67 	.globl _AC
                                     68 	.globl _CY
                                     69 	.globl _P37
                                     70 	.globl _P36
                                     71 	.globl _P35
                                     72 	.globl _P34
                                     73 	.globl _P33
                                     74 	.globl _P32
                                     75 	.globl _P31
                                     76 	.globl _P30
                                     77 	.globl _P27
                                     78 	.globl _P26
                                     79 	.globl _P25
                                     80 	.globl _P24
                                     81 	.globl _P23
                                     82 	.globl _P22
                                     83 	.globl _P21
                                     84 	.globl _P20
                                     85 	.globl _P17
                                     86 	.globl _P16
                                     87 	.globl _P15
                                     88 	.globl _P14
                                     89 	.globl _P13
                                     90 	.globl _P12
                                     91 	.globl _P11
                                     92 	.globl _P10
                                     93 	.globl _P07
                                     94 	.globl _P06
                                     95 	.globl _P05
                                     96 	.globl _P04
                                     97 	.globl _P03
                                     98 	.globl _P02
                                     99 	.globl _P01
                                    100 	.globl _P00
                                    101 	.globl _TH2
                                    102 	.globl _TL2
                                    103 	.globl _RCAP2H
                                    104 	.globl _RCAP2L
                                    105 	.globl _T2CON
                                    106 	.globl _SBUF
                                    107 	.globl _SCON
                                    108 	.globl _IP
                                    109 	.globl _IE
                                    110 	.globl _TH1
                                    111 	.globl _TH0
                                    112 	.globl _TL1
                                    113 	.globl _TL0
                                    114 	.globl _TMOD
                                    115 	.globl _TCON
                                    116 	.globl _PCON
                                    117 	.globl _DPH
                                    118 	.globl _DPL
                                    119 	.globl _SP
                                    120 	.globl _B
                                    121 	.globl _ACC
                                    122 	.globl _PSW
                                    123 	.globl _P3
                                    124 	.globl _P2
                                    125 	.globl _P1
                                    126 	.globl _P0
                                    127 	.globl _startupScreen
                                    128 ;--------------------------------------------------------
                                    129 ; special function registers
                                    130 ;--------------------------------------------------------
                                    131 	.area RSEG    (ABS,DATA)
      000000                        132 	.org 0x0000
                           000080   133 _P0	=	0x0080
                           000090   134 _P1	=	0x0090
                           0000A0   135 _P2	=	0x00a0
                           0000B0   136 _P3	=	0x00b0
                           0000D0   137 _PSW	=	0x00d0
                           0000E0   138 _ACC	=	0x00e0
                           0000F0   139 _B	=	0x00f0
                           000081   140 _SP	=	0x0081
                           000082   141 _DPL	=	0x0082
                           000083   142 _DPH	=	0x0083
                           000087   143 _PCON	=	0x0087
                           000088   144 _TCON	=	0x0088
                           000089   145 _TMOD	=	0x0089
                           00008A   146 _TL0	=	0x008a
                           00008B   147 _TL1	=	0x008b
                           00008C   148 _TH0	=	0x008c
                           00008D   149 _TH1	=	0x008d
                           0000A8   150 _IE	=	0x00a8
                           0000B8   151 _IP	=	0x00b8
                           000098   152 _SCON	=	0x0098
                           000099   153 _SBUF	=	0x0099
                           0000C8   154 _T2CON	=	0x00c8
                           0000CA   155 _RCAP2L	=	0x00ca
                           0000CB   156 _RCAP2H	=	0x00cb
                           0000CC   157 _TL2	=	0x00cc
                           0000CD   158 _TH2	=	0x00cd
                                    159 ;--------------------------------------------------------
                                    160 ; special function bits
                                    161 ;--------------------------------------------------------
                                    162 	.area RSEG    (ABS,DATA)
      000000                        163 	.org 0x0000
                           000080   164 _P00	=	0x0080
                           000081   165 _P01	=	0x0081
                           000082   166 _P02	=	0x0082
                           000083   167 _P03	=	0x0083
                           000084   168 _P04	=	0x0084
                           000085   169 _P05	=	0x0085
                           000086   170 _P06	=	0x0086
                           000087   171 _P07	=	0x0087
                           000090   172 _P10	=	0x0090
                           000091   173 _P11	=	0x0091
                           000092   174 _P12	=	0x0092
                           000093   175 _P13	=	0x0093
                           000094   176 _P14	=	0x0094
                           000095   177 _P15	=	0x0095
                           000096   178 _P16	=	0x0096
                           000097   179 _P17	=	0x0097
                           0000A0   180 _P20	=	0x00a0
                           0000A1   181 _P21	=	0x00a1
                           0000A2   182 _P22	=	0x00a2
                           0000A3   183 _P23	=	0x00a3
                           0000A4   184 _P24	=	0x00a4
                           0000A5   185 _P25	=	0x00a5
                           0000A6   186 _P26	=	0x00a6
                           0000A7   187 _P27	=	0x00a7
                           0000B0   188 _P30	=	0x00b0
                           0000B1   189 _P31	=	0x00b1
                           0000B2   190 _P32	=	0x00b2
                           0000B3   191 _P33	=	0x00b3
                           0000B4   192 _P34	=	0x00b4
                           0000B5   193 _P35	=	0x00b5
                           0000B6   194 _P36	=	0x00b6
                           0000B7   195 _P37	=	0x00b7
                           0000D7   196 _CY	=	0x00d7
                           0000D6   197 _AC	=	0x00d6
                           0000D5   198 _F0	=	0x00d5
                           0000D4   199 _RS1	=	0x00d4
                           0000D3   200 _RS0	=	0x00d3
                           0000D2   201 _OV	=	0x00d2
                           0000D0   202 _P	=	0x00d0
                           00008F   203 _TF1	=	0x008f
                           00008E   204 _TR1	=	0x008e
                           00008D   205 _TF0	=	0x008d
                           00008C   206 _TR0	=	0x008c
                           00008B   207 _IE1	=	0x008b
                           00008A   208 _IT1	=	0x008a
                           000089   209 _IE0	=	0x0089
                           000088   210 _IT0	=	0x0088
                           0000AF   211 _EA	=	0x00af
                           0000AD   212 _ET2	=	0x00ad
                           0000AC   213 _ES	=	0x00ac
                           0000AB   214 _ET1	=	0x00ab
                           0000AA   215 _EX1	=	0x00aa
                           0000A9   216 _ET0	=	0x00a9
                           0000A8   217 _EX0	=	0x00a8
                           0000BD   218 _PT2	=	0x00bd
                           0000BC   219 _PS	=	0x00bc
                           0000BB   220 _PT1	=	0x00bb
                           0000BA   221 _PX1	=	0x00ba
                           0000B9   222 _PT0	=	0x00b9
                           0000B8   223 _PX0	=	0x00b8
                           0000B7   224 _RD	=	0x00b7
                           0000B6   225 _WR	=	0x00b6
                           0000B5   226 _T1	=	0x00b5
                           0000B4   227 _T0	=	0x00b4
                           0000B3   228 _INT1	=	0x00b3
                           0000B2   229 _INT0	=	0x00b2
                           0000B1   230 _TXD	=	0x00b1
                           0000B0   231 _RXD	=	0x00b0
                           00009F   232 _SM0	=	0x009f
                           00009E   233 _SM1	=	0x009e
                           00009D   234 _SM2	=	0x009d
                           00009C   235 _REN	=	0x009c
                           00009B   236 _TB8	=	0x009b
                           00009A   237 _RB8	=	0x009a
                           000099   238 _TI	=	0x0099
                           000098   239 _RI	=	0x0098
                           000091   240 _T2EX	=	0x0091
                           000090   241 _T2	=	0x0090
                           0000CF   242 _TF2	=	0x00cf
                           0000CE   243 _EXF2	=	0x00ce
                           0000CD   244 _RCLK	=	0x00cd
                           0000CC   245 _TCLK	=	0x00cc
                           0000CB   246 _EXEN2	=	0x00cb
                           0000CA   247 _TR2	=	0x00ca
                           0000C9   248 _C_T2	=	0x00c9
                           0000C8   249 _CP_RL2	=	0x00c8
                                    250 ;--------------------------------------------------------
                                    251 ; overlayable register banks
                                    252 ;--------------------------------------------------------
                                    253 	.area REG_BANK_0	(REL,OVR,DATA)
      000000                        254 	.ds 8
                                    255 ;--------------------------------------------------------
                                    256 ; internal ram data
                                    257 ;--------------------------------------------------------
                                    258 	.area DSEG    (DATA)
                                    259 ;--------------------------------------------------------
                                    260 ; overlayable items in internal ram
                                    261 ;--------------------------------------------------------
                                    262 ;--------------------------------------------------------
                                    263 ; indirectly addressable internal ram data
                                    264 ;--------------------------------------------------------
                                    265 	.area ISEG    (DATA)
                                    266 ;--------------------------------------------------------
                                    267 ; absolute internal ram data
                                    268 ;--------------------------------------------------------
                                    269 	.area IABS    (ABS,DATA)
                                    270 	.area IABS    (ABS,DATA)
                                    271 ;--------------------------------------------------------
                                    272 ; bit data
                                    273 ;--------------------------------------------------------
                                    274 	.area BSEG    (BIT)
                                    275 ;--------------------------------------------------------
                                    276 ; paged external ram data
                                    277 ;--------------------------------------------------------
                                    278 	.area PSEG    (PAG,XDATA)
                                    279 ;--------------------------------------------------------
                                    280 ; external ram data
                                    281 ;--------------------------------------------------------
                                    282 	.area XSEG    (XDATA)
      000000                        283 _startupScreen_line_1_65536_10:
      000000                        284 	.ds 17
      000011                        285 _startupScreen_line_2_65536_10:
      000011                        286 	.ds 17
                                    287 ;--------------------------------------------------------
                                    288 ; absolute external ram data
                                    289 ;--------------------------------------------------------
                                    290 	.area XABS    (ABS,XDATA)
                                    291 ;--------------------------------------------------------
                                    292 ; external initialized ram data
                                    293 ;--------------------------------------------------------
                                    294 	.area XISEG   (XDATA)
                                    295 	.area HOME    (CODE)
                                    296 	.area GSINIT0 (CODE)
                                    297 	.area GSINIT1 (CODE)
                                    298 	.area GSINIT2 (CODE)
                                    299 	.area GSINIT3 (CODE)
                                    300 	.area GSINIT4 (CODE)
                                    301 	.area GSINIT5 (CODE)
                                    302 	.area GSINIT  (CODE)
                                    303 	.area GSFINAL (CODE)
                                    304 	.area CSEG    (CODE)
                                    305 ;--------------------------------------------------------
                                    306 ; global & static initialisations
                                    307 ;--------------------------------------------------------
                                    308 	.area HOME    (CODE)
                                    309 	.area GSINIT  (CODE)
                                    310 	.area GSFINAL (CODE)
                                    311 	.area GSINIT  (CODE)
                                    312 ;--------------------------------------------------------
                                    313 ; Home
                                    314 ;--------------------------------------------------------
                                    315 	.area HOME    (CODE)
                                    316 	.area HOME    (CODE)
                                    317 ;--------------------------------------------------------
                                    318 ; code
                                    319 ;--------------------------------------------------------
                                    320 	.area CSEG    (CODE)
                                    321 ;------------------------------------------------------------
                                    322 ;Allocation info for local variables in function 'startupScreen'
                                    323 ;------------------------------------------------------------
                                    324 ;i                         Allocated to registers r7 
                                    325 ;j                         Allocated to registers r6 
                                    326 ;delay_ms                  Allocated to registers 
                                    327 ;line_1                    Allocated with name '_startupScreen_line_1_65536_10'
                                    328 ;line_2                    Allocated with name '_startupScreen_line_2_65536_10'
                                    329 ;------------------------------------------------------------
                                    330 ;	.\src\screens\startupScreen.c:4: void startupScreen() {
                                    331 ;	-----------------------------------------
                                    332 ;	 function startupScreen
                                    333 ;	-----------------------------------------
      000000                        334 _startupScreen:
                           000007   335 	ar7 = 0x07
                           000006   336 	ar6 = 0x06
                           000005   337 	ar5 = 0x05
                           000004   338 	ar4 = 0x04
                           000003   339 	ar3 = 0x03
                           000002   340 	ar2 = 0x02
                           000001   341 	ar1 = 0x01
                           000000   342 	ar0 = 0x00
                                    343 ;	.\src\screens\startupScreen.c:7: xdata unsigned char line_1[] = "Welcome to AAUCS";
      000000 90r00r00         [24]  344 	mov	dptr,#_startupScreen_line_1_65536_10
      000003 74 57            [12]  345 	mov	a,#0x57
      000005 F0               [24]  346 	movx	@dptr,a
      000006 90r00r01         [24]  347 	mov	dptr,#(_startupScreen_line_1_65536_10 + 0x0001)
      000009 74 65            [12]  348 	mov	a,#0x65
      00000B F0               [24]  349 	movx	@dptr,a
      00000C 90r00r02         [24]  350 	mov	dptr,#(_startupScreen_line_1_65536_10 + 0x0002)
      00000F 74 6C            [12]  351 	mov	a,#0x6c
      000011 F0               [24]  352 	movx	@dptr,a
      000012 90r00r03         [24]  353 	mov	dptr,#(_startupScreen_line_1_65536_10 + 0x0003)
      000015 74 63            [12]  354 	mov	a,#0x63
      000017 F0               [24]  355 	movx	@dptr,a
      000018 90r00r04         [24]  356 	mov	dptr,#(_startupScreen_line_1_65536_10 + 0x0004)
      00001B 74 6F            [12]  357 	mov	a,#0x6f
      00001D F0               [24]  358 	movx	@dptr,a
      00001E 90r00r05         [24]  359 	mov	dptr,#(_startupScreen_line_1_65536_10 + 0x0005)
      000021 74 6D            [12]  360 	mov	a,#0x6d
      000023 F0               [24]  361 	movx	@dptr,a
      000024 90r00r06         [24]  362 	mov	dptr,#(_startupScreen_line_1_65536_10 + 0x0006)
      000027 74 65            [12]  363 	mov	a,#0x65
      000029 F0               [24]  364 	movx	@dptr,a
      00002A 90r00r07         [24]  365 	mov	dptr,#(_startupScreen_line_1_65536_10 + 0x0007)
      00002D 74 20            [12]  366 	mov	a,#0x20
      00002F F0               [24]  367 	movx	@dptr,a
      000030 90r00r08         [24]  368 	mov	dptr,#(_startupScreen_line_1_65536_10 + 0x0008)
      000033 74 74            [12]  369 	mov	a,#0x74
      000035 F0               [24]  370 	movx	@dptr,a
      000036 90r00r09         [24]  371 	mov	dptr,#(_startupScreen_line_1_65536_10 + 0x0009)
      000039 74 6F            [12]  372 	mov	a,#0x6f
      00003B F0               [24]  373 	movx	@dptr,a
      00003C 90r00r0A         [24]  374 	mov	dptr,#(_startupScreen_line_1_65536_10 + 0x000a)
      00003F 74 20            [12]  375 	mov	a,#0x20
      000041 F0               [24]  376 	movx	@dptr,a
      000042 90r00r0B         [24]  377 	mov	dptr,#(_startupScreen_line_1_65536_10 + 0x000b)
      000045 74 41            [12]  378 	mov	a,#0x41
      000047 F0               [24]  379 	movx	@dptr,a
      000048 90r00r0C         [24]  380 	mov	dptr,#(_startupScreen_line_1_65536_10 + 0x000c)
      00004B F0               [24]  381 	movx	@dptr,a
      00004C 90r00r0D         [24]  382 	mov	dptr,#(_startupScreen_line_1_65536_10 + 0x000d)
      00004F 74 55            [12]  383 	mov	a,#0x55
      000051 F0               [24]  384 	movx	@dptr,a
      000052 90r00r0E         [24]  385 	mov	dptr,#(_startupScreen_line_1_65536_10 + 0x000e)
      000055 74 43            [12]  386 	mov	a,#0x43
      000057 F0               [24]  387 	movx	@dptr,a
      000058 90r00r0F         [24]  388 	mov	dptr,#(_startupScreen_line_1_65536_10 + 0x000f)
      00005B 74 53            [12]  389 	mov	a,#0x53
      00005D F0               [24]  390 	movx	@dptr,a
      00005E 90r00r10         [24]  391 	mov	dptr,#(_startupScreen_line_1_65536_10 + 0x0010)
      000061 E4               [12]  392 	clr	a
      000062 F0               [24]  393 	movx	@dptr,a
                                    394 ;	.\src\screens\startupScreen.c:8: xdata unsigned char line_2[] = "     No. 31     ";
      000063 90r00r11         [24]  395 	mov	dptr,#_startupScreen_line_2_65536_10
      000066 74 20            [12]  396 	mov	a,#0x20
      000068 F0               [24]  397 	movx	@dptr,a
      000069 90r00r12         [24]  398 	mov	dptr,#(_startupScreen_line_2_65536_10 + 0x0001)
      00006C F0               [24]  399 	movx	@dptr,a
      00006D 90r00r13         [24]  400 	mov	dptr,#(_startupScreen_line_2_65536_10 + 0x0002)
      000070 F0               [24]  401 	movx	@dptr,a
      000071 90r00r14         [24]  402 	mov	dptr,#(_startupScreen_line_2_65536_10 + 0x0003)
      000074 F0               [24]  403 	movx	@dptr,a
      000075 90r00r15         [24]  404 	mov	dptr,#(_startupScreen_line_2_65536_10 + 0x0004)
      000078 F0               [24]  405 	movx	@dptr,a
      000079 90r00r16         [24]  406 	mov	dptr,#(_startupScreen_line_2_65536_10 + 0x0005)
      00007C 74 4E            [12]  407 	mov	a,#0x4e
      00007E F0               [24]  408 	movx	@dptr,a
      00007F 90r00r17         [24]  409 	mov	dptr,#(_startupScreen_line_2_65536_10 + 0x0006)
      000082 74 6F            [12]  410 	mov	a,#0x6f
      000084 F0               [24]  411 	movx	@dptr,a
      000085 90r00r18         [24]  412 	mov	dptr,#(_startupScreen_line_2_65536_10 + 0x0007)
      000088 74 2E            [12]  413 	mov	a,#0x2e
      00008A F0               [24]  414 	movx	@dptr,a
      00008B 90r00r19         [24]  415 	mov	dptr,#(_startupScreen_line_2_65536_10 + 0x0008)
      00008E 74 20            [12]  416 	mov	a,#0x20
      000090 F0               [24]  417 	movx	@dptr,a
      000091 90r00r1A         [24]  418 	mov	dptr,#(_startupScreen_line_2_65536_10 + 0x0009)
      000094 74 33            [12]  419 	mov	a,#0x33
      000096 F0               [24]  420 	movx	@dptr,a
      000097 90r00r1B         [24]  421 	mov	dptr,#(_startupScreen_line_2_65536_10 + 0x000a)
      00009A 74 31            [12]  422 	mov	a,#0x31
      00009C F0               [24]  423 	movx	@dptr,a
      00009D 90r00r1C         [24]  424 	mov	dptr,#(_startupScreen_line_2_65536_10 + 0x000b)
      0000A0 74 20            [12]  425 	mov	a,#0x20
      0000A2 F0               [24]  426 	movx	@dptr,a
      0000A3 90r00r1D         [24]  427 	mov	dptr,#(_startupScreen_line_2_65536_10 + 0x000c)
      0000A6 F0               [24]  428 	movx	@dptr,a
      0000A7 90r00r1E         [24]  429 	mov	dptr,#(_startupScreen_line_2_65536_10 + 0x000d)
      0000AA F0               [24]  430 	movx	@dptr,a
      0000AB 90r00r1F         [24]  431 	mov	dptr,#(_startupScreen_line_2_65536_10 + 0x000e)
      0000AE F0               [24]  432 	movx	@dptr,a
      0000AF 90r00r20         [24]  433 	mov	dptr,#(_startupScreen_line_2_65536_10 + 0x000f)
      0000B2 F0               [24]  434 	movx	@dptr,a
      0000B3 90r00r21         [24]  435 	mov	dptr,#(_startupScreen_line_2_65536_10 + 0x0010)
      0000B6 E4               [12]  436 	clr	a
      0000B7 F0               [24]  437 	movx	@dptr,a
                                    438 ;	.\src\screens\startupScreen.c:10: for (i = 0; i < 16; i++) {
      0000B8 7F 00            [12]  439 	mov	r7,#0x00
      0000BA                        440 00106$:
                                    441 ;	.\src\screens\startupScreen.c:11: writeCharOnLCD1602(0, i, line_1[i]);
      0000BA EF               [12]  442 	mov	a,r7
      0000BB 24r00            [12]  443 	add	a,#_startupScreen_line_1_65536_10
      0000BD F5 82            [12]  444 	mov	dpl,a
      0000BF E4               [12]  445 	clr	a
      0000C0 34s00            [12]  446 	addc	a,#(_startupScreen_line_1_65536_10 >> 8)
      0000C2 F5 83            [12]  447 	mov	dph,a
      0000C4 E0               [24]  448 	movx	a,@dptr
      0000C5 F5*00            [12]  449 	mov	_writeCharOnLCD1602_PARM_3,a
      0000C7 8F*00            [24]  450 	mov	_writeCharOnLCD1602_PARM_2,r7
      0000C9 75 82 00         [24]  451 	mov	dpl,#0x00
      0000CC C0 07            [24]  452 	push	ar7
      0000CE 12r00r00         [24]  453 	lcall	_writeCharOnLCD1602
      0000D1 D0 07            [24]  454 	pop	ar7
                                    455 ;	.\src\screens\startupScreen.c:12: if (i < 7) writeCharOnLCD1602(1, i+5, line_2[i+5]);
      0000D3 BF 07 00         [24]  456 	cjne	r7,#0x07,00141$
      0000D6                        457 00141$:
      0000D6 50 24            [24]  458 	jnc	00102$
      0000D8 8F 06            [24]  459 	mov	ar6,r7
      0000DA 74 05            [12]  460 	mov	a,#0x05
      0000DC 2E               [12]  461 	add	a,r6
      0000DD FE               [12]  462 	mov	r6,a
      0000DE FC               [12]  463 	mov	r4,a
      0000DF 33               [12]  464 	rlc	a
      0000E0 95 E0            [12]  465 	subb	a,acc
      0000E2 FD               [12]  466 	mov	r5,a
      0000E3 EC               [12]  467 	mov	a,r4
      0000E4 24r11            [12]  468 	add	a,#_startupScreen_line_2_65536_10
      0000E6 F5 82            [12]  469 	mov	dpl,a
      0000E8 ED               [12]  470 	mov	a,r5
      0000E9 34s00            [12]  471 	addc	a,#(_startupScreen_line_2_65536_10 >> 8)
      0000EB F5 83            [12]  472 	mov	dph,a
      0000ED E0               [24]  473 	movx	a,@dptr
      0000EE F5*00            [12]  474 	mov	_writeCharOnLCD1602_PARM_3,a
      0000F0 8E*00            [24]  475 	mov	_writeCharOnLCD1602_PARM_2,r6
      0000F2 75 82 01         [24]  476 	mov	dpl,#0x01
      0000F5 C0 07            [24]  477 	push	ar7
      0000F7 12r00r00         [24]  478 	lcall	_writeCharOnLCD1602
      0000FA D0 07            [24]  479 	pop	ar7
      0000FC                        480 00102$:
                                    481 ;	.\src\screens\startupScreen.c:13: delayOneMillisecond(delay_ms);
      0000FC 90 00 32         [24]  482 	mov	dptr,#0x0032
      0000FF C0 07            [24]  483 	push	ar7
      000101 12r00r00         [24]  484 	lcall	_delayOneMillisecond
      000104 D0 07            [24]  485 	pop	ar7
                                    486 ;	.\src\screens\startupScreen.c:10: for (i = 0; i < 16; i++) {
      000106 0F               [12]  487 	inc	r7
      000107 BF 10 00         [24]  488 	cjne	r7,#0x10,00143$
      00010A                        489 00143$:
      00010A 40 AE            [24]  490 	jc	00106$
                                    491 ;	.\src\screens\startupScreen.c:15: delayOneSecond(1);
      00010C 90 00 01         [24]  492 	mov	dptr,#0x0001
      00010F 12r00r00         [24]  493 	lcall	_delayOneSecond
                                    494 ;	.\src\screens\startupScreen.c:17: for (i = 0; i < 16; i++) {
      000112 7F 00            [12]  495 	mov	r7,#0x00
                                    496 ;	.\src\screens\startupScreen.c:19: for (j = 0; j < 16; j++) {
      000114                        497 00117$:
      000114 7E 00            [12]  498 	mov	r6,#0x00
      000116                        499 00108$:
                                    500 ;	.\src\screens\startupScreen.c:20: line_1[j] = line_1[j+1];
      000116 EE               [12]  501 	mov	a,r6
      000117 24r00            [12]  502 	add	a,#_startupScreen_line_1_65536_10
      000119 FC               [12]  503 	mov	r4,a
      00011A E4               [12]  504 	clr	a
      00011B 34s00            [12]  505 	addc	a,#(_startupScreen_line_1_65536_10 >> 8)
      00011D FD               [12]  506 	mov	r5,a
      00011E 8E 03            [24]  507 	mov	ar3,r6
      000120 0B               [12]  508 	inc	r3
      000121 EB               [12]  509 	mov	a,r3
      000122 33               [12]  510 	rlc	a
      000123 95 E0            [12]  511 	subb	a,acc
      000125 FA               [12]  512 	mov	r2,a
      000126 EB               [12]  513 	mov	a,r3
      000127 24r00            [12]  514 	add	a,#_startupScreen_line_1_65536_10
      000129 F5 82            [12]  515 	mov	dpl,a
      00012B EA               [12]  516 	mov	a,r2
      00012C 34s00            [12]  517 	addc	a,#(_startupScreen_line_1_65536_10 >> 8)
      00012E F5 83            [12]  518 	mov	dph,a
      000130 E0               [24]  519 	movx	a,@dptr
      000131 8C 82            [24]  520 	mov	dpl,r4
      000133 8D 83            [24]  521 	mov	dph,r5
      000135 F0               [24]  522 	movx	@dptr,a
                                    523 ;	.\src\screens\startupScreen.c:21: line_2[j] = line_2[j+1];
      000136 EE               [12]  524 	mov	a,r6
      000137 24r11            [12]  525 	add	a,#_startupScreen_line_2_65536_10
      000139 FC               [12]  526 	mov	r4,a
      00013A E4               [12]  527 	clr	a
      00013B 34s00            [12]  528 	addc	a,#(_startupScreen_line_2_65536_10 >> 8)
      00013D FD               [12]  529 	mov	r5,a
      00013E EB               [12]  530 	mov	a,r3
      00013F 24r11            [12]  531 	add	a,#_startupScreen_line_2_65536_10
      000141 F5 82            [12]  532 	mov	dpl,a
      000143 EA               [12]  533 	mov	a,r2
      000144 34s00            [12]  534 	addc	a,#(_startupScreen_line_2_65536_10 >> 8)
      000146 F5 83            [12]  535 	mov	dph,a
      000148 E0               [24]  536 	movx	a,@dptr
      000149 8C 82            [24]  537 	mov	dpl,r4
      00014B 8D 83            [24]  538 	mov	dph,r5
      00014D F0               [24]  539 	movx	@dptr,a
                                    540 ;	.\src\screens\startupScreen.c:19: for (j = 0; j < 16; j++) {
      00014E 0E               [12]  541 	inc	r6
      00014F BE 10 00         [24]  542 	cjne	r6,#0x10,00145$
      000152                        543 00145$:
      000152 40 C2            [24]  544 	jc	00108$
                                    545 ;	.\src\screens\startupScreen.c:23: line_1[15] = ' ';
      000154 90r00r0F         [24]  546 	mov	dptr,#(_startupScreen_line_1_65536_10 + 0x000f)
      000157 74 20            [12]  547 	mov	a,#0x20
      000159 F0               [24]  548 	movx	@dptr,a
                                    549 ;	.\src\screens\startupScreen.c:24: line_2[15] = ' ';
      00015A 90r00r20         [24]  550 	mov	dptr,#(_startupScreen_line_2_65536_10 + 0x000f)
      00015D F0               [24]  551 	movx	@dptr,a
                                    552 ;	.\src\screens\startupScreen.c:26: putStringOnLCD1602(0, 0, line_1);
      00015E 75*00r00         [24]  553 	mov	_putStringOnLCD1602_PARM_3,#_startupScreen_line_1_65536_10
      000161 75*01s00         [24]  554 	mov	(_putStringOnLCD1602_PARM_3 + 1),#(_startupScreen_line_1_65536_10 >> 8)
      000164 75*02 00         [24]  555 	mov	(_putStringOnLCD1602_PARM_3 + 2),#0x00
      000167 75*00 00         [24]  556 	mov	_putStringOnLCD1602_PARM_2,#0x00
      00016A 75 82 00         [24]  557 	mov	dpl,#0x00
      00016D C0 07            [24]  558 	push	ar7
      00016F 12r00r00         [24]  559 	lcall	_putStringOnLCD1602
                                    560 ;	.\src\screens\startupScreen.c:27: putStringOnLCD1602(1, 0, line_2);
      000172 75*00r11         [24]  561 	mov	_putStringOnLCD1602_PARM_3,#_startupScreen_line_2_65536_10
      000175 75*01s00         [24]  562 	mov	(_putStringOnLCD1602_PARM_3 + 1),#(_startupScreen_line_2_65536_10 >> 8)
      000178 75*02 00         [24]  563 	mov	(_putStringOnLCD1602_PARM_3 + 2),#0x00
      00017B 75*00 00         [24]  564 	mov	_putStringOnLCD1602_PARM_2,#0x00
      00017E 75 82 01         [24]  565 	mov	dpl,#0x01
      000181 12r00r00         [24]  566 	lcall	_putStringOnLCD1602
                                    567 ;	.\src\screens\startupScreen.c:28: delayOneMillisecond(delay_ms/2);
      000184 90 00 19         [24]  568 	mov	dptr,#0x0019
      000187 12r00r00         [24]  569 	lcall	_delayOneMillisecond
      00018A D0 07            [24]  570 	pop	ar7
                                    571 ;	.\src\screens\startupScreen.c:17: for (i = 0; i < 16; i++) {
      00018C 0F               [12]  572 	inc	r7
      00018D BF 10 00         [24]  573 	cjne	r7,#0x10,00147$
      000190                        574 00147$:
      000190 50 03            [24]  575 	jnc	00148$
      000192 02r01r14         [24]  576 	ljmp	00117$
      000195                        577 00148$:
                                    578 ;	.\src\screens\startupScreen.c:30: }
      000195 22               [24]  579 	ret
                                    580 	.area CSEG    (CODE)
                                    581 	.area CONST   (CODE)
                                    582 	.area XINIT   (CODE)
                                    583 	.area CABS    (ABS,CODE)
